ARM GAS  C:\Users\dwguo\AppData\Local\Temp\ccX6G6Oe.s 			page 1


   1              		.syntax unified
   2              		.cpu cortex-m3
   3              		.fpu softvfp
   4              		.eabi_attribute 20, 1
   5              		.eabi_attribute 21, 1
   6              		.eabi_attribute 23, 3
   7              		.eabi_attribute 24, 1
   8              		.eabi_attribute 25, 1
   9              		.eabi_attribute 26, 1
  10              		.eabi_attribute 30, 6
  11              		.eabi_attribute 18, 4
  12              		.thumb
  13              		.file	"main.c"
  20 0000 BE010000 		.text
  20      02004600 
  20      00000201 
  20      FB0E0D00 
  20      01010101 
  21              	.Ltext0:
  22              		.cfi_sections	.debug_frame
  23              		.global	circumference
  24              		.data
  25              		.align	3
  26              		.type	circumference, %object
  27              		.size	circumference, 8
  28              	circumference:
  29 0000 85EB51B8 		.word	-1202590843
  30 0004 1E851E40 		.word	1075741982
  31              		.global	clock_freq
  32              		.align	2
  33              		.type	clock_freq, %object
  34              		.size	clock_freq, 4
  35              	clock_freq:
  36 0008 10270000 		.word	10000
  37              		.global	n_sensors_per_rev
  38              		.align	2
  39              		.type	n_sensors_per_rev, %object
  40              		.size	n_sensors_per_rev, 4
  41              	n_sensors_per_rev:
  42 000c 05000000 		.word	5
  43              		.global	inches_per_foot
  44              		.align	2
  45              		.type	inches_per_foot, %object
  46              		.size	inches_per_foot, 4
  47              	inches_per_foot:
  48 0010 0C000000 		.word	12
  49              		.global	max_timer_count
  50              		.align	2
  51              		.type	max_timer_count, %object
  52              		.size	max_timer_count, 4
  53              	max_timer_count:
ARM GAS  C:\Users\dwguo\AppData\Local\Temp\ccX6G6Oe.s 			page 2


  54 0014 00000100 		.word	65536
  55              		.global	target_speed
  56              		.align	3
  57              		.type	target_speed, %object
  58              		.size	target_speed, 8
  59              	target_speed:
  60 0018 00000000 		.word	0
  61 001c 00001040 		.word	1074790400
  62              		.comm	previous_capture,4,4
  63              		.comm	kp,8,8
  64              		.comm	ki,8,8
  65              		.comm	err_current,8,8
  66              		.comm	speed,8,8
  67              		.comm	delta_t,8,8
  68              		.comm	output_current,8,8
  69              		.comm	error_sum,8,8
  70              		.comm	weight,8,8
  71              		.comm	output_initial,4,4
  72              		.comm	i,4,4
  73              		.comm	j,4,4
  74              		.global	inf_clk
  75              		.align	2
  76              		.type	inf_clk, %object
  77              		.size	inf_clk, 4
  78              	inf_clk:
  79 0020 18000000 		.word	24
  80              		.global	inf_timer_count
  81              		.align	2
  82              		.type	inf_timer_count, %object
  83              		.size	inf_timer_count, 4
  84              	inf_timer_count:
  85 0024 00000001 		.word	16777216
  86              		.global	timing_tolerance
  87              		.align	2
  88              		.type	timing_tolerance, %object
  89              		.size	timing_tolerance, 4
  90              	timing_tolerance:
  91 0028 05000000 		.word	5
  92              		.comm	inf_rise,16,4
  93              		.comm	inf_rise_prev,16,4
  94              		.comm	inf_fall,16,4
  95              		.comm	risingEdge,16,4
  96              		.comm	dx,16,4
  97              		.comm	dy,16,4
  98              		.comm	n_fallingEdges,16,4
  99              		.comm	skip,4,4
 100              		.comm	axis,16,4
 101              		.comm	sync_width,8,8
 102              		.comm	inf_dbg,4,4
 103              		.comm	xUpdated,4,4
 104              		.comm	yUpdated,4,4
 105              		.comm	dbg3,4,4
 106              		.global	activate_0
 107              		.align	2
 108              		.type	activate_0, %object
 109              		.size	activate_0, 4
 110              	activate_0:
ARM GAS  C:\Users\dwguo\AppData\Local\Temp\ccX6G6Oe.s 			page 3


 111 002c 01000000 		.word	1
 112              		.global	activate_1
 113              		.align	2
 114              		.type	activate_1, %object
 115              		.size	activate_1, 4
 116              	activate_1:
 117 0030 02000000 		.word	2
 118              		.global	activate_2
 119              		.align	2
 120              		.type	activate_2, %object
 121              		.size	activate_2, 4
 122              	activate_2:
 123 0034 04000000 		.word	4
 124              		.global	activate_3
 125              		.align	2
 126              		.type	activate_3, %object
 127              		.size	activate_3, 4
 128              	activate_3:
 129 0038 08000000 		.word	8
 130              		.global	time_slice
 131              		.align	2
 132              		.type	time_slice, %object
 133              		.size	time_slice, 4
 134              	time_slice:
 135 003c 0A000000 		.word	10
 136              		.section	.text.zeroIntArr,"ax",%progbits
 137              		.align	2
 138              		.thumb
 139              		.thumb_func
 140              		.type	zeroIntArr, %function
 141              	zeroIntArr:
 142              	.LFB29:
 143              		.file 1 ".\\main.c"
   1:.\main.c      **** /* ========================================
   2:.\main.c      ****  *
   3:.\main.c      ****  * Copyright YOUR COMPANY, THE YEAR
   4:.\main.c      ****  * All Rights Reserved
   5:.\main.c      ****  * UNPUBLISHED, LICENSED SOFTWARE.
   6:.\main.c      ****  *
   7:.\main.c      ****  * CONFIDENTIAL AND PROPRIETARY INFORMATION
   8:.\main.c      ****  * WHICH IS THE PROPERTY OF your company.
   9:.\main.c      ****  *
  10:.\main.c      ****  * ========================================
  11:.\main.c      **** */
  12:.\main.c      **** #include <device.h>
  13:.\main.c      **** #include <stdio.h>
  14:.\main.c      **** #include <math.h>
  15:.\main.c      **** #include <stdlib.h>
  16:.\main.c      **** 
  17:.\main.c      **** #define n_sensors 4
  18:.\main.c      **** 
  19:.\main.c      **** /*------speed control------*/
  20:.\main.c      **** // constants
  21:.\main.c      **** double circumference = 7.63;      // inches/revolution
  22:.\main.c      **** int clock_freq = 10000;           // 10 kHz = counts/sec
  23:.\main.c      **** int n_sensors_per_rev = 5;
  24:.\main.c      **** int inches_per_foot = 12;
ARM GAS  C:\Users\dwguo\AppData\Local\Temp\ccX6G6Oe.s 			page 4


  25:.\main.c      **** int max_timer_count = 65536;
  26:.\main.c      **** 
  27:.\main.c      **** double target_speed = 4.0;        // feet/sec
  28:.\main.c      **** int previous_capture;
  29:.\main.c      **** 
  30:.\main.c      **** double kp;                        // PID proportional term constant
  31:.\main.c      **** double ki;                        // PID integral term constant
  32:.\main.c      **** double err_current;               // current error value
  33:.\main.c      **** double speed;
  34:.\main.c      **** 
  35:.\main.c      **** double delta_t;                   // time between measurements, used in integral term
  36:.\main.c      **** double output_current;            // current PWM duty cycle output
  37:.\main.c      **** double error_sum;
  38:.\main.c      **** double weight;
  39:.\main.c      **** int output_initial;
  40:.\main.c      **** 
  41:.\main.c      **** int i;
  42:.\main.c      **** int j;
  43:.\main.c      **** 
  44:.\main.c      **** /*------infrared tracking------*/
  45:.\main.c      **** int inf_clk = 24; //(MHz)
  46:.\main.c      **** int inf_timer_count = 16777216;
  47:.\main.c      **** int timing_tolerance = 5;
  48:.\main.c      **** 
  49:.\main.c      **** int inf_rise[n_sensors];
  50:.\main.c      **** int inf_rise_prev[n_sensors];
  51:.\main.c      **** int inf_fall[n_sensors];
  52:.\main.c      **** int risingEdge[n_sensors];
  53:.\main.c      **** int dx[n_sensors];
  54:.\main.c      **** int dy[n_sensors];
  55:.\main.c      **** int n_fallingEdges[n_sensors];
  56:.\main.c      **** 
  57:.\main.c      **** int skip;
  58:.\main.c      **** int axis[n_sensors];
  59:.\main.c      **** 
  60:.\main.c      **** double sync_width;
  61:.\main.c      **** int inf_dbg;
  62:.\main.c      **** int xUpdated;
  63:.\main.c      **** int yUpdated;
  64:.\main.c      **** int dbg3;
  65:.\main.c      **** 
  66:.\main.c      **** int activate_0 = 1;
  67:.\main.c      **** int activate_1 = 2;
  68:.\main.c      **** int activate_2 = 4;
  69:.\main.c      **** int activate_3 = 8;
  70:.\main.c      **** int time_slice = 10;
  71:.\main.c      **** 
  72:.\main.c      **** static void zeroIntArr(int arr[], int length) {
 144              		.loc 1 72 0
 145              		.cfi_startproc
 146              		@ args = 0, pretend = 0, frame = 16
 147              		@ frame_needed = 1, uses_anonymous_args = 0
 148              		@ link register save eliminated.
 149 0000 80B4     		push	{r7}
 150              	.LCFI0:
 151              		.cfi_def_cfa_offset 4
 152 0002 85B0     		sub	sp, sp, #20
ARM GAS  C:\Users\dwguo\AppData\Local\Temp\ccX6G6Oe.s 			page 5


 153              	.LCFI1:
 154              		.cfi_def_cfa_offset 24
 155 0004 00AF     		add	r7, sp, #0
 156              		.cfi_offset 7, -4
 157              	.LCFI2:
 158              		.cfi_def_cfa_register 7
 159 0006 7860     		str	r0, [r7, #4]
 160 0008 3960     		str	r1, [r7, #0]
  73:.\main.c      ****     int i;
  74:.\main.c      ****     for (i = 0; i < length; i++) {
 161              		.loc 1 74 0
 162 000a 4FF00003 		mov	r3, #0
 163 000e FB60     		str	r3, [r7, #12]
 164 0010 0BE0     		b	.L2
 165              	.L3:
  75:.\main.c      ****         arr[i] = 0;
 166              		.loc 1 75 0
 167 0012 FB68     		ldr	r3, [r7, #12]
 168 0014 4FEA8302 		lsl	r2, r3, #2
 169 0018 7B68     		ldr	r3, [r7, #4]
 170 001a 1344     		add	r3, r2, r3
 171 001c 4FF00002 		mov	r2, #0
 172 0020 1A60     		str	r2, [r3, #0]
 173              		.loc 1 74 0
 174 0022 FB68     		ldr	r3, [r7, #12]
 175 0024 03F10103 		add	r3, r3, #1
 176 0028 FB60     		str	r3, [r7, #12]
 177              	.L2:
 178 002a FA68     		ldr	r2, [r7, #12]
 179 002c 3B68     		ldr	r3, [r7, #0]
 180 002e 9A42     		cmp	r2, r3
 181 0030 EFDB     		blt	.L3
  76:.\main.c      ****     }
  77:.\main.c      ****     return;
  78:.\main.c      **** }
 182              		.loc 1 78 0
 183 0032 07F11407 		add	r7, r7, #20
 184 0036 BD46     		mov	sp, r7
 185 0038 80BC     		pop	{r7}
 186 003a 7047     		bx	lr
 187              		.cfi_endproc
 188              	.LFE29:
 189              		.size	zeroIntArr, .-zeroIntArr
 190              		.section	.text.sendWireless,"ax",%progbits
 191              		.align	2
 192              		.thumb
 193              		.thumb_func
 194              		.type	sendWireless, %function
 195              	sendWireless:
 196              	.LFB30:
  79:.\main.c      **** 
  80:.\main.c      **** static void sendWireless(int id, int dt, int axis) {
 197              		.loc 1 80 0
 198              		.cfi_startproc
 199              		@ args = 0, pretend = 0, frame = 16
 200              		@ frame_needed = 1, uses_anonymous_args = 0
 201 0000 80B5     		push	{r7, lr}
ARM GAS  C:\Users\dwguo\AppData\Local\Temp\ccX6G6Oe.s 			page 6


 202              	.LCFI3:
 203              		.cfi_def_cfa_offset 8
 204 0002 84B0     		sub	sp, sp, #16
 205              	.LCFI4:
 206              		.cfi_def_cfa_offset 24
 207 0004 00AF     		add	r7, sp, #0
 208              		.cfi_offset 14, -4
 209              		.cfi_offset 7, -8
 210              	.LCFI5:
 211              		.cfi_def_cfa_register 7
 212 0006 F860     		str	r0, [r7, #12]
 213 0008 B960     		str	r1, [r7, #8]
 214 000a 7A60     		str	r2, [r7, #4]
  81:.\main.c      ****     UART_PutChar('s');
 215              		.loc 1 81 0
 216 000c 4FF07300 		mov	r0, #115
 217 0010 FFF7FEFF 		bl	UART_PutChar
  82:.\main.c      ****     UART_PutChar(id);
 218              		.loc 1 82 0
 219 0014 FB68     		ldr	r3, [r7, #12]
 220 0016 DBB2     		uxtb	r3, r3
 221 0018 1846     		mov	r0, r3
 222 001a FFF7FEFF 		bl	UART_PutChar
  83:.\main.c      ****     UART_PutChar(axis);
 223              		.loc 1 83 0
 224 001e 7B68     		ldr	r3, [r7, #4]
 225 0020 DBB2     		uxtb	r3, r3
 226 0022 1846     		mov	r0, r3
 227 0024 FFF7FEFF 		bl	UART_PutChar
  84:.\main.c      ****     
  85:.\main.c      ****     // big endian byte order
  86:.\main.c      ****     UART_PutChar((char) dt & 0xff);
 228              		.loc 1 86 0
 229 0028 BB68     		ldr	r3, [r7, #8]
 230 002a DBB2     		uxtb	r3, r3
 231 002c 1846     		mov	r0, r3
 232 002e FFF7FEFF 		bl	UART_PutChar
  87:.\main.c      ****     UART_PutChar((char) (dt >> 8) & 0xff);
 233              		.loc 1 87 0
 234 0032 BB68     		ldr	r3, [r7, #8]
 235 0034 4FEA2323 		asr	r3, r3, #8
 236 0038 DBB2     		uxtb	r3, r3
 237 003a 1846     		mov	r0, r3
 238 003c FFF7FEFF 		bl	UART_PutChar
  88:.\main.c      ****     UART_PutChar((char) (dt >> 16) & 0xff);
 239              		.loc 1 88 0
 240 0040 BB68     		ldr	r3, [r7, #8]
 241 0042 4FEA2343 		asr	r3, r3, #16
 242 0046 DBB2     		uxtb	r3, r3
 243 0048 1846     		mov	r0, r3
 244 004a FFF7FEFF 		bl	UART_PutChar
  89:.\main.c      **** }
 245              		.loc 1 89 0
 246 004e 07F11007 		add	r7, r7, #16
 247 0052 BD46     		mov	sp, r7
 248 0054 80BD     		pop	{r7, pc}
 249              		.cfi_endproc
ARM GAS  C:\Users\dwguo\AppData\Local\Temp\ccX6G6Oe.s 			page 7


 250              	.LFE30:
 251              		.size	sendWireless, .-sendWireless
 252 0056 00BF     		.section	.text.updateSensorPos,"ax",%progbits
 253              		.align	2
 254              		.thumb
 255              		.thumb_func
 256              		.type	updateSensorPos, %function
 257              	updateSensorPos:
 258              	.LFB31:
  90:.\main.c      **** 
  91:.\main.c      **** static void updateSensorPos(int id) {
 259              		.loc 1 91 0
 260              		.cfi_startproc
 261              		@ args = 0, pretend = 0, frame = 24
 262              		@ frame_needed = 1, uses_anonymous_args = 0
 263              		@ link register save eliminated.
 264 0000 80B4     		push	{r7}
 265              	.LCFI6:
 266              		.cfi_def_cfa_offset 4
 267 0002 87B0     		sub	sp, sp, #28
 268              	.LCFI7:
 269              		.cfi_def_cfa_offset 32
 270 0004 00AF     		add	r7, sp, #0
 271              		.cfi_offset 7, -4
 272              	.LCFI8:
 273              		.cfi_def_cfa_register 7
 274 0006 7860     		str	r0, [r7, #4]
  92:.\main.c      ****     int n_counts;
  93:.\main.c      ****     if (inf_fall[id] > inf_rise[id]) {
 275              		.loc 1 93 0
 276 0008 7A68     		ldr	r2, [r7, #4]
 277 000a 40F20003 		movw	r3, #:lower16:inf_fall
 278 000e C0F20003 		movt	r3, #:upper16:inf_fall
 279 0012 53F82220 		ldr	r2, [r3, r2, lsl #2]
 280 0016 7968     		ldr	r1, [r7, #4]
 281 0018 40F20003 		movw	r3, #:lower16:inf_rise
 282 001c C0F20003 		movt	r3, #:upper16:inf_rise
 283 0020 53F82130 		ldr	r3, [r3, r1, lsl #2]
 284 0024 9A42     		cmp	r2, r3
 285 0026 11DD     		ble	.L8
  94:.\main.c      ****         n_counts = inf_fall[id] - inf_rise[id];
 286              		.loc 1 94 0
 287 0028 7A68     		ldr	r2, [r7, #4]
 288 002a 40F20003 		movw	r3, #:lower16:inf_fall
 289 002e C0F20003 		movt	r3, #:upper16:inf_fall
 290 0032 53F82220 		ldr	r2, [r3, r2, lsl #2]
 291 0036 7968     		ldr	r1, [r7, #4]
 292 0038 40F20003 		movw	r3, #:lower16:inf_rise
 293 003c C0F20003 		movt	r3, #:upper16:inf_rise
 294 0040 53F82130 		ldr	r3, [r3, r1, lsl #2]
 295 0044 C3EB0203 		rsb	r3, r3, r2
 296 0048 FB60     		str	r3, [r7, #12]
 297 004a 16E0     		b	.L9
 298              	.L8:
  95:.\main.c      ****     }
  96:.\main.c      ****     else {
  97:.\main.c      ****         n_counts = inf_fall[id] + (inf_timer_count - inf_rise[id]);
ARM GAS  C:\Users\dwguo\AppData\Local\Temp\ccX6G6Oe.s 			page 8


 299              		.loc 1 97 0
 300 004c 7A68     		ldr	r2, [r7, #4]
 301 004e 40F20003 		movw	r3, #:lower16:inf_fall
 302 0052 C0F20003 		movt	r3, #:upper16:inf_fall
 303 0056 53F82220 		ldr	r2, [r3, r2, lsl #2]
 304 005a 40F20003 		movw	r3, #:lower16:inf_timer_count
 305 005e C0F20003 		movt	r3, #:upper16:inf_timer_count
 306 0062 1968     		ldr	r1, [r3, #0]
 307 0064 7868     		ldr	r0, [r7, #4]
 308 0066 40F20003 		movw	r3, #:lower16:inf_rise
 309 006a C0F20003 		movt	r3, #:upper16:inf_rise
 310 006e 53F82030 		ldr	r3, [r3, r0, lsl #2]
 311 0072 C3EB0103 		rsb	r3, r3, r1
 312 0076 1344     		add	r3, r2, r3
 313 0078 FB60     		str	r3, [r7, #12]
 314              	.L9:
  98:.\main.c      ****     }
  99:.\main.c      ****     
 100:.\main.c      ****     int sync_width = n_counts / inf_clk;
 315              		.loc 1 100 0
 316 007a 40F20003 		movw	r3, #:lower16:inf_clk
 317 007e C0F20003 		movt	r3, #:upper16:inf_clk
 318 0082 1B68     		ldr	r3, [r3, #0]
 319 0084 FA68     		ldr	r2, [r7, #12]
 320 0086 92FBF3F3 		sdiv	r3, r2, r3
 321 008a 3B61     		str	r3, [r7, #16]
 101:.\main.c      ****     if (sync_width < 40) {
 322              		.loc 1 101 0
 323 008c 3B69     		ldr	r3, [r7, #16]
 324 008e 272B     		cmp	r3, #39
 325 0090 53DC     		bgt	.L10
 326              	.LBB2:
 102:.\main.c      ****         int dt;
 103:.\main.c      ****         if (inf_rise_prev[id] > inf_fall[id]) {
 327              		.loc 1 103 0
 328 0092 7A68     		ldr	r2, [r7, #4]
 329 0094 40F20003 		movw	r3, #:lower16:inf_rise_prev
 330 0098 C0F20003 		movt	r3, #:upper16:inf_rise_prev
 331 009c 53F82220 		ldr	r2, [r3, r2, lsl #2]
 332 00a0 7968     		ldr	r1, [r7, #4]
 333 00a2 40F20003 		movw	r3, #:lower16:inf_fall
 334 00a6 C0F20003 		movt	r3, #:upper16:inf_fall
 335 00aa 53F82130 		ldr	r3, [r3, r1, lsl #2]
 336 00ae 9A42     		cmp	r2, r3
 337 00b0 11DD     		ble	.L11
 104:.\main.c      ****             dt = inf_rise_prev[id] - inf_fall[id];
 338              		.loc 1 104 0
 339 00b2 7A68     		ldr	r2, [r7, #4]
 340 00b4 40F20003 		movw	r3, #:lower16:inf_rise_prev
 341 00b8 C0F20003 		movt	r3, #:upper16:inf_rise_prev
 342 00bc 53F82220 		ldr	r2, [r3, r2, lsl #2]
 343 00c0 7968     		ldr	r1, [r7, #4]
 344 00c2 40F20003 		movw	r3, #:lower16:inf_fall
 345 00c6 C0F20003 		movt	r3, #:upper16:inf_fall
 346 00ca 53F82130 		ldr	r3, [r3, r1, lsl #2]
 347 00ce C3EB0203 		rsb	r3, r3, r2
 348 00d2 7B61     		str	r3, [r7, #20]
ARM GAS  C:\Users\dwguo\AppData\Local\Temp\ccX6G6Oe.s 			page 9


 349 00d4 16E0     		b	.L12
 350              	.L11:
 105:.\main.c      ****         }
 106:.\main.c      ****         else {
 107:.\main.c      ****             dt = inf_rise_prev[id] + (inf_timer_count - inf_fall[id]);
 351              		.loc 1 107 0
 352 00d6 7A68     		ldr	r2, [r7, #4]
 353 00d8 40F20003 		movw	r3, #:lower16:inf_rise_prev
 354 00dc C0F20003 		movt	r3, #:upper16:inf_rise_prev
 355 00e0 53F82220 		ldr	r2, [r3, r2, lsl #2]
 356 00e4 40F20003 		movw	r3, #:lower16:inf_timer_count
 357 00e8 C0F20003 		movt	r3, #:upper16:inf_timer_count
 358 00ec 1968     		ldr	r1, [r3, #0]
 359 00ee 7868     		ldr	r0, [r7, #4]
 360 00f0 40F20003 		movw	r3, #:lower16:inf_fall
 361 00f4 C0F20003 		movt	r3, #:upper16:inf_fall
 362 00f8 53F82030 		ldr	r3, [r3, r0, lsl #2]
 363 00fc C3EB0103 		rsb	r3, r3, r1
 364 0100 1344     		add	r3, r2, r3
 365 0102 7B61     		str	r3, [r7, #20]
 366              	.L12:
 108:.\main.c      ****         }
 109:.\main.c      ****         
 110:.\main.c      ****         if (axis[id] == 0) {
 367              		.loc 1 110 0
 368 0104 7A68     		ldr	r2, [r7, #4]
 369 0106 40F20003 		movw	r3, #:lower16:axis
 370 010a C0F20003 		movt	r3, #:upper16:axis
 371 010e 53F82230 		ldr	r3, [r3, r2, lsl #2]
 372 0112 002B     		cmp	r3, #0
 373 0114 08D1     		bne	.L13
 111:.\main.c      ****             dx[id] = dt;
 374              		.loc 1 111 0
 375 0116 7A68     		ldr	r2, [r7, #4]
 376 0118 40F20003 		movw	r3, #:lower16:dx
 377 011c C0F20003 		movt	r3, #:upper16:dx
 378 0120 7969     		ldr	r1, [r7, #20]
 379 0122 43F82210 		str	r1, [r3, r2, lsl #2]
 112:.\main.c      ****         }
 113:.\main.c      ****         else {
 114:.\main.c      ****             dy[id] = dt;
 380              		.loc 1 114 0
 381 0126 67E0     		b	.L19
 382              	.L13:
 383 0128 7A68     		ldr	r2, [r7, #4]
 384 012a 40F20003 		movw	r3, #:lower16:dy
 385 012e C0F20003 		movt	r3, #:upper16:dy
 386 0132 7969     		ldr	r1, [r7, #20]
 387 0134 43F82210 		str	r1, [r3, r2, lsl #2]
 388 0138 5EE0     		b	.L19
 389              	.L10:
 390              	.LBE2:
 115:.\main.c      ****         }
 116:.\main.c      ****     }
 117:.\main.c      ****     else if (abs(sync_width - 63) <= timing_tolerance) {
 391              		.loc 1 117 0
 392 013a 3B69     		ldr	r3, [r7, #16]
ARM GAS  C:\Users\dwguo\AppData\Local\Temp\ccX6G6Oe.s 			page 10


 393 013c A3F13F03 		sub	r3, r3, #63
 394 0140 83EAE372 		eor	r2, r3, r3, asr #31
 395 0144 A2EBE372 		sub	r2, r2, r3, asr #31
 396 0148 40F20003 		movw	r3, #:lower16:timing_tolerance
 397 014c C0F20003 		movt	r3, #:upper16:timing_tolerance
 398 0150 1B68     		ldr	r3, [r3, #0]
 399 0152 9A42     		cmp	r2, r3
 400 0154 09DC     		bgt	.L16
 118:.\main.c      ****         axis[id] = 0;
 401              		.loc 1 118 0
 402 0156 7A68     		ldr	r2, [r7, #4]
 403 0158 40F20003 		movw	r3, #:lower16:axis
 404 015c C0F20003 		movt	r3, #:upper16:axis
 405 0160 4FF00001 		mov	r1, #0
 406 0164 43F82210 		str	r1, [r3, r2, lsl #2]
 407 0168 46E0     		b	.L19
 408              	.L16:
 119:.\main.c      ****     }
 120:.\main.c      ****     else if (abs(sync_width - 73) <= timing_tolerance) {
 409              		.loc 1 120 0
 410 016a 3B69     		ldr	r3, [r7, #16]
 411 016c A3F14903 		sub	r3, r3, #73
 412 0170 83EAE372 		eor	r2, r3, r3, asr #31
 413 0174 A2EBE372 		sub	r2, r2, r3, asr #31
 414 0178 40F20003 		movw	r3, #:lower16:timing_tolerance
 415 017c C0F20003 		movt	r3, #:upper16:timing_tolerance
 416 0180 1B68     		ldr	r3, [r3, #0]
 417 0182 9A42     		cmp	r2, r3
 418 0184 09DC     		bgt	.L17
 121:.\main.c      ****         axis[id] = 1;
 419              		.loc 1 121 0
 420 0186 7A68     		ldr	r2, [r7, #4]
 421 0188 40F20003 		movw	r3, #:lower16:axis
 422 018c C0F20003 		movt	r3, #:upper16:axis
 423 0190 4FF00101 		mov	r1, #1
 424 0194 43F82210 		str	r1, [r3, r2, lsl #2]
 425 0198 2EE0     		b	.L19
 426              	.L17:
 122:.\main.c      ****     }
 123:.\main.c      ****     else if (abs(sync_width - 83) <= timing_tolerance) {
 427              		.loc 1 123 0
 428 019a 3B69     		ldr	r3, [r7, #16]
 429 019c A3F15303 		sub	r3, r3, #83
 430 01a0 83EAE372 		eor	r2, r3, r3, asr #31
 431 01a4 A2EBE372 		sub	r2, r2, r3, asr #31
 432 01a8 40F20003 		movw	r3, #:lower16:timing_tolerance
 433 01ac C0F20003 		movt	r3, #:upper16:timing_tolerance
 434 01b0 1B68     		ldr	r3, [r3, #0]
 435 01b2 9A42     		cmp	r2, r3
 436 01b4 09DC     		bgt	.L18
 124:.\main.c      ****         axis[id] = 0;
 437              		.loc 1 124 0
 438 01b6 7A68     		ldr	r2, [r7, #4]
 439 01b8 40F20003 		movw	r3, #:lower16:axis
 440 01bc C0F20003 		movt	r3, #:upper16:axis
 441 01c0 4FF00001 		mov	r1, #0
 442 01c4 43F82210 		str	r1, [r3, r2, lsl #2]
ARM GAS  C:\Users\dwguo\AppData\Local\Temp\ccX6G6Oe.s 			page 11


 443 01c8 16E0     		b	.L19
 444              	.L18:
 125:.\main.c      ****     }
 126:.\main.c      ****     else if (abs(sync_width - 94) <= timing_tolerance) {
 445              		.loc 1 126 0
 446 01ca 3B69     		ldr	r3, [r7, #16]
 447 01cc A3F15E03 		sub	r3, r3, #94
 448 01d0 83EAE372 		eor	r2, r3, r3, asr #31
 449 01d4 A2EBE372 		sub	r2, r2, r3, asr #31
 450 01d8 40F20003 		movw	r3, #:lower16:timing_tolerance
 451 01dc C0F20003 		movt	r3, #:upper16:timing_tolerance
 452 01e0 1B68     		ldr	r3, [r3, #0]
 453 01e2 9A42     		cmp	r2, r3
 454 01e4 08DC     		bgt	.L19
 127:.\main.c      ****         axis[id] = 1;
 455              		.loc 1 127 0
 456 01e6 7A68     		ldr	r2, [r7, #4]
 457 01e8 40F20003 		movw	r3, #:lower16:axis
 458 01ec C0F20003 		movt	r3, #:upper16:axis
 459 01f0 4FF00101 		mov	r1, #1
 460 01f4 43F82210 		str	r1, [r3, r2, lsl #2]
 461              	.L19:
 128:.\main.c      ****     }
 129:.\main.c      ****     return;
 130:.\main.c      **** }
 462              		.loc 1 130 0
 463 01f8 07F11C07 		add	r7, r7, #28
 464 01fc BD46     		mov	sp, r7
 465 01fe 80BC     		pop	{r7}
 466 0200 7047     		bx	lr
 467              		.cfi_endproc
 468              	.LFE31:
 469              		.size	updateSensorPos, .-updateSensorPos
 470              		.global	__aeabi_i2d
 471              		.global	__aeabi_dmul
 472              		.global	__aeabi_ddiv
 473              		.global	__aeabi_dsub
 474              		.global	__aeabi_dadd
 475              		.global	__aeabi_dcmplt
 476              		.global	__aeabi_d2uiz
 477 0202 00BF     		.section	.text.inter_HE,"ax",%progbits
 478              		.align	2
 479              		.global	inter_HE
 480              		.thumb
 481              		.thumb_func
 482              		.type	inter_HE, %function
 483              	inter_HE:
 484              	.LFB32:
 131:.\main.c      **** 
 132:.\main.c      **** /*
 133:.\main.c      **** int bufferFull(int[] dx, int[] dy) {
 134:.\main.c      ****     for (i = 0; i < n_sensors - 1; i++) {
 135:.\main.c      ****         if (dx == 0 || dy == 0) {
 136:.\main.c      ****             return 0;
 137:.\main.c      ****         }
 138:.\main.c      ****     }
 139:.\main.c      ****     return 1;
ARM GAS  C:\Users\dwguo\AppData\Local\Temp\ccX6G6Oe.s 			page 12


 140:.\main.c      **** }*/
 141:.\main.c      **** 
 142:.\main.c      **** CY_ISR(inter_HE)
 143:.\main.c      **** {   
 485              		.loc 1 143 0
 486              		.cfi_startproc
 487              		@ args = 0, pretend = 0, frame = 8
 488              		@ frame_needed = 1, uses_anonymous_args = 0
 489 0000 B0B5     		push	{r4, r5, r7, lr}
 490              	.LCFI9:
 491              		.cfi_def_cfa_offset 16
 492 0002 82B0     		sub	sp, sp, #8
 493              	.LCFI10:
 494              		.cfi_def_cfa_offset 24
 495 0004 00AF     		add	r7, sp, #0
 496              		.cfi_offset 14, -4
 497              		.cfi_offset 7, -8
 498              		.cfi_offset 5, -12
 499              		.cfi_offset 4, -16
 500              	.LCFI11:
 501              		.cfi_def_cfa_register 7
 144:.\main.c      ****     //char strbuffer[15];
 145:.\main.c      ****     int current_capture = (int) Timer_HE_ReadCapture();
 502              		.loc 1 145 0
 503 0006 FFF7FEFF 		bl	Timer_HE_ReadCapture
 504 000a 0346     		mov	r3, r0
 505 000c 3B60     		str	r3, [r7, #0]
 146:.\main.c      ****     int counts = 0;
 506              		.loc 1 146 0
 507 000e 4FF00003 		mov	r3, #0
 508 0012 7B60     		str	r3, [r7, #4]
 147:.\main.c      ****     
 148:.\main.c      ****     if (current_capture > previous_capture) {   // rollover
 509              		.loc 1 148 0
 510 0014 40F20003 		movw	r3, #:lower16:previous_capture
 511 0018 C0F20003 		movt	r3, #:upper16:previous_capture
 512 001c 1B68     		ldr	r3, [r3, #0]
 513 001e 3A68     		ldr	r2, [r7, #0]
 514 0020 9A42     		cmp	r2, r3
 515 0022 0FDD     		ble	.L21
 149:.\main.c      ****         counts = max_timer_count - current_capture + previous_capture;
 516              		.loc 1 149 0
 517 0024 40F20003 		movw	r3, #:lower16:max_timer_count
 518 0028 C0F20003 		movt	r3, #:upper16:max_timer_count
 519 002c 1A68     		ldr	r2, [r3, #0]
 520 002e 3B68     		ldr	r3, [r7, #0]
 521 0030 C3EB0202 		rsb	r2, r3, r2
 522 0034 40F20003 		movw	r3, #:lower16:previous_capture
 523 0038 C0F20003 		movt	r3, #:upper16:previous_capture
 524 003c 1B68     		ldr	r3, [r3, #0]
 525 003e 1344     		add	r3, r2, r3
 526 0040 7B60     		str	r3, [r7, #4]
 527 0042 08E0     		b	.L22
 528              	.L21:
 150:.\main.c      ****     }
 151:.\main.c      ****     else {
 152:.\main.c      ****         counts = previous_capture - current_capture;
ARM GAS  C:\Users\dwguo\AppData\Local\Temp\ccX6G6Oe.s 			page 13


 529              		.loc 1 152 0
 530 0044 40F20003 		movw	r3, #:lower16:previous_capture
 531 0048 C0F20003 		movt	r3, #:upper16:previous_capture
 532 004c 1A68     		ldr	r2, [r3, #0]
 533 004e 3B68     		ldr	r3, [r7, #0]
 534 0050 C3EB0203 		rsb	r3, r3, r2
 535 0054 7B60     		str	r3, [r7, #4]
 536              	.L22:
 153:.\main.c      ****     }
 154:.\main.c      ****     previous_capture = current_capture;
 537              		.loc 1 154 0
 538 0056 40F20003 		movw	r3, #:lower16:previous_capture
 539 005a C0F20003 		movt	r3, #:upper16:previous_capture
 540 005e 3A68     		ldr	r2, [r7, #0]
 541 0060 1A60     		str	r2, [r3, #0]
 155:.\main.c      ****     
 156:.\main.c      ****     // on first loop through interrupt function, make sure error starts positive by setting speed i
 157:.\main.c      ****     if (i == 0) {
 542              		.loc 1 157 0
 543 0062 40F20003 		movw	r3, #:lower16:i
 544 0066 C0F20003 		movt	r3, #:upper16:i
 545 006a 1B68     		ldr	r3, [r3, #0]
 546 006c 002B     		cmp	r3, #0
 547 006e 11D1     		bne	.L23
 158:.\main.c      ****         speed = 0;
 548              		.loc 1 158 0
 549 0070 40F20003 		movw	r3, #:lower16:speed
 550 0074 C0F20003 		movt	r3, #:upper16:speed
 551 0078 4FF00000 		mov	r0, #0
 552 007c 4FF00001 		mov	r1, #0
 553 0080 C3E90001 		strd	r0, [r3]
 159:.\main.c      ****         i = 1;
 554              		.loc 1 159 0
 555 0084 40F20003 		movw	r3, #:lower16:i
 556 0088 C0F20003 		movt	r3, #:upper16:i
 557 008c 4FF00102 		mov	r2, #1
 558 0090 1A60     		str	r2, [r3, #0]
 559 0092 35E0     		b	.L24
 560              	.L23:
 160:.\main.c      ****     }
 161:.\main.c      ****     else {
 162:.\main.c      ****         speed = (double) (circumference * clock_freq) / (counts * n_sensors_per_rev * inches_per_fo
 561              		.loc 1 162 0
 562 0094 40F20003 		movw	r3, #:lower16:clock_freq
 563 0098 C0F20003 		movt	r3, #:upper16:clock_freq
 564 009c 1B68     		ldr	r3, [r3, #0]
 565 009e 1846     		mov	r0, r3
 566 00a0 FFF7FEFF 		bl	__aeabi_i2d
 567 00a4 40F20003 		movw	r3, #:lower16:circumference
 568 00a8 C0F20003 		movt	r3, #:upper16:circumference
 569 00ac D3E90023 		ldrd	r2, [r3]
 570 00b0 FFF7FEFF 		bl	__aeabi_dmul
 571 00b4 0246     		mov	r2, r0
 572 00b6 0B46     		mov	r3, r1
 573 00b8 1446     		mov	r4, r2
 574 00ba 1D46     		mov	r5, r3
 575 00bc 40F20003 		movw	r3, #:lower16:n_sensors_per_rev
ARM GAS  C:\Users\dwguo\AppData\Local\Temp\ccX6G6Oe.s 			page 14


 576 00c0 C0F20003 		movt	r3, #:upper16:n_sensors_per_rev
 577 00c4 1B68     		ldr	r3, [r3, #0]
 578 00c6 7A68     		ldr	r2, [r7, #4]
 579 00c8 02FB03F2 		mul	r2, r2, r3
 580 00cc 40F20003 		movw	r3, #:lower16:inches_per_foot
 581 00d0 C0F20003 		movt	r3, #:upper16:inches_per_foot
 582 00d4 1B68     		ldr	r3, [r3, #0]
 583 00d6 03FB02F3 		mul	r3, r3, r2
 584 00da 1846     		mov	r0, r3
 585 00dc FFF7FEFF 		bl	__aeabi_i2d
 586 00e0 0246     		mov	r2, r0
 587 00e2 0B46     		mov	r3, r1
 588 00e4 2046     		mov	r0, r4
 589 00e6 2946     		mov	r1, r5
 590 00e8 FFF7FEFF 		bl	__aeabi_ddiv
 591 00ec 0246     		mov	r2, r0
 592 00ee 0B46     		mov	r3, r1
 593 00f0 1046     		mov	r0, r2
 594 00f2 1946     		mov	r1, r3
 595 00f4 40F20003 		movw	r3, #:lower16:speed
 596 00f8 C0F20003 		movt	r3, #:upper16:speed
 597 00fc C3E90001 		strd	r0, [r3]
 598              	.L24:
 163:.\main.c      ****     }
 164:.\main.c      ****     
 165:.\main.c      ****     err_current = target_speed - speed;
 599              		.loc 1 165 0
 600 0100 40F20003 		movw	r3, #:lower16:target_speed
 601 0104 C0F20003 		movt	r3, #:upper16:target_speed
 602 0108 D3E90001 		ldrd	r0, [r3]
 603 010c 40F20003 		movw	r3, #:lower16:speed
 604 0110 C0F20003 		movt	r3, #:upper16:speed
 605 0114 D3E90023 		ldrd	r2, [r3]
 606 0118 FFF7FEFF 		bl	__aeabi_dsub
 607 011c 0246     		mov	r2, r0
 608 011e 0B46     		mov	r3, r1
 609 0120 1046     		mov	r0, r2
 610 0122 1946     		mov	r1, r3
 611 0124 40F20003 		movw	r3, #:lower16:err_current
 612 0128 C0F20003 		movt	r3, #:upper16:err_current
 613 012c C3E90001 		strd	r0, [r3]
 166:.\main.c      ****     
 167:.\main.c      ****     error_sum = error_sum + err_current;
 614              		.loc 1 167 0
 615 0130 40F20003 		movw	r3, #:lower16:error_sum
 616 0134 C0F20003 		movt	r3, #:upper16:error_sum
 617 0138 D3E90001 		ldrd	r0, [r3]
 618 013c 40F20003 		movw	r3, #:lower16:err_current
 619 0140 C0F20003 		movt	r3, #:upper16:err_current
 620 0144 D3E90023 		ldrd	r2, [r3]
 621 0148 FFF7FEFF 		bl	__aeabi_dadd
 622 014c 0246     		mov	r2, r0
 623 014e 0B46     		mov	r3, r1
 624 0150 1046     		mov	r0, r2
 625 0152 1946     		mov	r1, r3
 626 0154 40F20003 		movw	r3, #:lower16:error_sum
 627 0158 C0F20003 		movt	r3, #:upper16:error_sum
ARM GAS  C:\Users\dwguo\AppData\Local\Temp\ccX6G6Oe.s 			page 15


 628 015c C3E90001 		strd	r0, [r3]
 168:.\main.c      ****     output_current = (kp*err_current) + (ki*error_sum);   // PI control calculation
 629              		.loc 1 168 0
 630 0160 40F20003 		movw	r3, #:lower16:kp
 631 0164 C0F20003 		movt	r3, #:upper16:kp
 632 0168 D3E90001 		ldrd	r0, [r3]
 633 016c 40F20003 		movw	r3, #:lower16:err_current
 634 0170 C0F20003 		movt	r3, #:upper16:err_current
 635 0174 D3E90023 		ldrd	r2, [r3]
 636 0178 FFF7FEFF 		bl	__aeabi_dmul
 637 017c 0246     		mov	r2, r0
 638 017e 0B46     		mov	r3, r1
 639 0180 1446     		mov	r4, r2
 640 0182 1D46     		mov	r5, r3
 641 0184 40F20003 		movw	r3, #:lower16:ki
 642 0188 C0F20003 		movt	r3, #:upper16:ki
 643 018c D3E90001 		ldrd	r0, [r3]
 644 0190 40F20003 		movw	r3, #:lower16:error_sum
 645 0194 C0F20003 		movt	r3, #:upper16:error_sum
 646 0198 D3E90023 		ldrd	r2, [r3]
 647 019c FFF7FEFF 		bl	__aeabi_dmul
 648 01a0 0246     		mov	r2, r0
 649 01a2 0B46     		mov	r3, r1
 650 01a4 2046     		mov	r0, r4
 651 01a6 2946     		mov	r1, r5
 652 01a8 FFF7FEFF 		bl	__aeabi_dadd
 653 01ac 0246     		mov	r2, r0
 654 01ae 0B46     		mov	r3, r1
 655 01b0 1046     		mov	r0, r2
 656 01b2 1946     		mov	r1, r3
 657 01b4 40F20003 		movw	r3, #:lower16:output_current
 658 01b8 C0F20003 		movt	r3, #:upper16:output_current
 659 01bc C3E90001 		strd	r0, [r3]
 169:.\main.c      ****     
 170:.\main.c      ****     // 0 bound guard
 171:.\main.c      ****     if (output_current < 0) output_current = 0;
 660              		.loc 1 171 0
 661 01c0 40F20003 		movw	r3, #:lower16:output_current
 662 01c4 C0F20003 		movt	r3, #:upper16:output_current
 663 01c8 D3E90023 		ldrd	r2, [r3]
 664 01cc 4FF00001 		mov	r1, #0
 665 01d0 0C46     		mov	r4, r1
 666 01d2 1046     		mov	r0, r2
 667 01d4 1946     		mov	r1, r3
 668 01d6 4FF00002 		mov	r2, #0
 669 01da 4FF00003 		mov	r3, #0
 670 01de FFF7FEFF 		bl	__aeabi_dcmplt
 671 01e2 0346     		mov	r3, r0
 672 01e4 002B     		cmp	r3, #0
 673 01e6 02D0     		beq	.L25
 674              	.L26:
 675 01e8 4FF00103 		mov	r3, #1
 676 01ec 1C46     		mov	r4, r3
 677              	.L25:
 678 01ee E3B2     		uxtb	r3, r4
 679 01f0 002B     		cmp	r3, #0
 680 01f2 09D0     		beq	.L27
ARM GAS  C:\Users\dwguo\AppData\Local\Temp\ccX6G6Oe.s 			page 16


 681 01f4 40F20003 		movw	r3, #:lower16:output_current
 682 01f8 C0F20003 		movt	r3, #:upper16:output_current
 683 01fc 4FF00000 		mov	r0, #0
 684 0200 4FF00001 		mov	r1, #0
 685 0204 C3E90001 		strd	r0, [r3]
 686              	.L27:
 172:.\main.c      ****     
 173:.\main.c      ****     // if two laps have been completed, set output to zero
 174:.\main.c      ****     //if (HE_interrupt_count > HE_interrupts_final) output_current = 0;
 175:.\main.c      ****     
 176:.\main.c      ****     // set new duty cycle 
 177:.\main.c      ****     PWM_Motor_WriteCompare(output_current); 
 687              		.loc 1 177 0
 688 0208 40F20003 		movw	r3, #:lower16:output_current
 689 020c C0F20003 		movt	r3, #:upper16:output_current
 690 0210 D3E90023 		ldrd	r2, [r3]
 691 0214 1046     		mov	r0, r2
 692 0216 1946     		mov	r1, r3
 693 0218 FFF7FEFF 		bl	__aeabi_d2uiz
 694 021c 0346     		mov	r3, r0
 695 021e DBB2     		uxtb	r3, r3
 696 0220 1846     		mov	r0, r3
 697 0222 FFF7FEFF 		bl	PWM_Motor_WriteCompare
 178:.\main.c      ****     /*
 179:.\main.c      ****     sprintf(strbuffer, "%i", HE_interrupt_count);
 180:.\main.c      ****     LCD_Position(1,0);
 181:.\main.c      ****     LCD_PrintString(strbuffer);
 182:.\main.c      ****     */
 183:.\main.c      ****     
 184:.\main.c      ****     //HE_interrupt_count += 1;
 185:.\main.c      **** }
 698              		.loc 1 185 0
 699 0226 07F10807 		add	r7, r7, #8
 700 022a BD46     		mov	sp, r7
 701 022c B0BD     		pop	{r4, r5, r7, pc}
 702              		.cfi_endproc
 703              	.LFE32:
 704              		.size	inter_HE, .-inter_HE
 705              		.section	.text.inter_infrared_rising_0,"ax",%progbits
 706              		.align	2
 707              		.global	inter_infrared_rising_0
 708              		.thumb
 709              		.thumb_func
 710              		.type	inter_infrared_rising_0, %function
 711              	inter_infrared_rising_0:
 712              	.LFB33:
 186:.\main.c      **** 
 187:.\main.c      **** // 1
 188:.\main.c      **** CY_ISR(inter_infrared_rising_0) {
 713              		.loc 1 188 0
 714              		.cfi_startproc
 715              		@ args = 0, pretend = 0, frame = 0
 716              		@ frame_needed = 1, uses_anonymous_args = 0
 717 0000 80B5     		push	{r7, lr}
 718              	.LCFI12:
 719              		.cfi_def_cfa_offset 8
 720 0002 00AF     		add	r7, sp, #0
ARM GAS  C:\Users\dwguo\AppData\Local\Temp\ccX6G6Oe.s 			page 17


 721              		.cfi_offset 14, -4
 722              		.cfi_offset 7, -8
 723              	.LCFI13:
 724              		.cfi_def_cfa_register 7
 189:.\main.c      ****     inf_rise_prev[0] = inf_rise[0];
 725              		.loc 1 189 0
 726 0004 40F20003 		movw	r3, #:lower16:inf_rise
 727 0008 C0F20003 		movt	r3, #:upper16:inf_rise
 728 000c 1A68     		ldr	r2, [r3, #0]
 729 000e 40F20003 		movw	r3, #:lower16:inf_rise_prev
 730 0012 C0F20003 		movt	r3, #:upper16:inf_rise_prev
 731 0016 1A60     		str	r2, [r3, #0]
 190:.\main.c      ****     inf_rise[0] = (int) Timer_Infrared_0_ReadCapture();
 732              		.loc 1 190 0
 733 0018 FFF7FEFF 		bl	Timer_Infrared_0_ReadCapture
 734 001c 0346     		mov	r3, r0
 735 001e 1A46     		mov	r2, r3
 736 0020 40F20003 		movw	r3, #:lower16:inf_rise
 737 0024 C0F20003 		movt	r3, #:upper16:inf_rise
 738 0028 1A60     		str	r2, [r3, #0]
 191:.\main.c      ****     updateSensorPos(0);
 739              		.loc 1 191 0
 740 002a 4FF00000 		mov	r0, #0
 741 002e FFF7FEFF 		bl	updateSensorPos
 192:.\main.c      **** }
 742              		.loc 1 192 0
 743 0032 80BD     		pop	{r7, pc}
 744              		.cfi_endproc
 745              	.LFE33:
 746              		.size	inter_infrared_rising_0, .-inter_infrared_rising_0
 747              		.section	.rodata
 748              		.align	2
 749              	.LC0:
 750 0000 256900   		.ascii	"%i\000"
 751 0003 00       		.section	.text.inter_infrared_falling_0,"ax",%progbits
 752              		.align	2
 753              		.global	inter_infrared_falling_0
 754              		.thumb
 755              		.thumb_func
 756              		.type	inter_infrared_falling_0, %function
 757              	inter_infrared_falling_0:
 758              	.LFB34:
 193:.\main.c      **** 
 194:.\main.c      **** CY_ISR(inter_infrared_falling_0) {
 759              		.loc 1 194 0
 760              		.cfi_startproc
 761              		@ args = 0, pretend = 0, frame = 16
 762              		@ frame_needed = 1, uses_anonymous_args = 0
 763 0000 80B5     		push	{r7, lr}
 764              	.LCFI14:
 765              		.cfi_def_cfa_offset 8
 766 0002 84B0     		sub	sp, sp, #16
 767              	.LCFI15:
 768              		.cfi_def_cfa_offset 24
 769 0004 00AF     		add	r7, sp, #0
 770              		.cfi_offset 14, -4
 771              		.cfi_offset 7, -8
ARM GAS  C:\Users\dwguo\AppData\Local\Temp\ccX6G6Oe.s 			page 18


 772              	.LCFI16:
 773              		.cfi_def_cfa_register 7
 195:.\main.c      ****     char strbuffer[15];
 196:.\main.c      ****     inf_fall[0] = (int) Timer_Infrared_0_ReadCapture();
 774              		.loc 1 196 0
 775 0006 FFF7FEFF 		bl	Timer_Infrared_0_ReadCapture
 776 000a 0346     		mov	r3, r0
 777 000c 1A46     		mov	r2, r3
 778 000e 40F20003 		movw	r3, #:lower16:inf_fall
 779 0012 C0F20003 		movt	r3, #:upper16:inf_fall
 780 0016 1A60     		str	r2, [r3, #0]
 197:.\main.c      ****     n_fallingEdges[0] += 1;
 781              		.loc 1 197 0
 782 0018 40F20003 		movw	r3, #:lower16:n_fallingEdges
 783 001c C0F20003 		movt	r3, #:upper16:n_fallingEdges
 784 0020 1B68     		ldr	r3, [r3, #0]
 785 0022 03F10102 		add	r2, r3, #1
 786 0026 40F20003 		movw	r3, #:lower16:n_fallingEdges
 787 002a C0F20003 		movt	r3, #:upper16:n_fallingEdges
 788 002e 1A60     		str	r2, [r3, #0]
 198:.\main.c      ****     
 199:.\main.c      ****     sprintf(strbuffer, "%i", n_fallingEdges[0]);
 789              		.loc 1 199 0
 790 0030 40F20003 		movw	r3, #:lower16:n_fallingEdges
 791 0034 C0F20003 		movt	r3, #:upper16:n_fallingEdges
 792 0038 1B68     		ldr	r3, [r3, #0]
 793 003a 3A46     		mov	r2, r7
 794 003c 1046     		mov	r0, r2
 795 003e 40F20001 		movw	r1, #:lower16:.LC0
 796 0042 C0F20001 		movt	r1, #:upper16:.LC0
 797 0046 1A46     		mov	r2, r3
 798 0048 FFF7FEFF 		bl	sprintf
 200:.\main.c      ****     LCD_Position(0,0);
 799              		.loc 1 200 0
 800 004c 4FF00000 		mov	r0, #0
 801 0050 4FF00001 		mov	r1, #0
 802 0054 FFF7FEFF 		bl	LCD_Position
 201:.\main.c      ****     LCD_PrintString(strbuffer);
 803              		.loc 1 201 0
 804 0058 3B46     		mov	r3, r7
 805 005a 1846     		mov	r0, r3
 806 005c FFF7FEFF 		bl	LCD_PrintString
 202:.\main.c      **** }
 807              		.loc 1 202 0
 808 0060 07F11007 		add	r7, r7, #16
 809 0064 BD46     		mov	sp, r7
 810 0066 80BD     		pop	{r7, pc}
 811              		.cfi_endproc
 812              	.LFE34:
 813              		.size	inter_infrared_falling_0, .-inter_infrared_falling_0
 814              		.section	.text.inter_infrared_rising_1,"ax",%progbits
 815              		.align	2
 816              		.global	inter_infrared_rising_1
 817              		.thumb
 818              		.thumb_func
 819              		.type	inter_infrared_rising_1, %function
 820              	inter_infrared_rising_1:
ARM GAS  C:\Users\dwguo\AppData\Local\Temp\ccX6G6Oe.s 			page 19


 821              	.LFB35:
 203:.\main.c      **** 
 204:.\main.c      **** // 2
 205:.\main.c      **** CY_ISR(inter_infrared_rising_1) {
 822              		.loc 1 205 0
 823              		.cfi_startproc
 824              		@ args = 0, pretend = 0, frame = 0
 825              		@ frame_needed = 1, uses_anonymous_args = 0
 826 0000 80B5     		push	{r7, lr}
 827              	.LCFI17:
 828              		.cfi_def_cfa_offset 8
 829 0002 00AF     		add	r7, sp, #0
 830              		.cfi_offset 14, -4
 831              		.cfi_offset 7, -8
 832              	.LCFI18:
 833              		.cfi_def_cfa_register 7
 206:.\main.c      ****     inf_rise_prev[1] = inf_rise[1];
 834              		.loc 1 206 0
 835 0004 40F20003 		movw	r3, #:lower16:inf_rise
 836 0008 C0F20003 		movt	r3, #:upper16:inf_rise
 837 000c 5A68     		ldr	r2, [r3, #4]
 838 000e 40F20003 		movw	r3, #:lower16:inf_rise_prev
 839 0012 C0F20003 		movt	r3, #:upper16:inf_rise_prev
 840 0016 5A60     		str	r2, [r3, #4]
 207:.\main.c      ****     inf_rise[1] = (int) Timer_Infrared_1_ReadCapture();
 841              		.loc 1 207 0
 842 0018 FFF7FEFF 		bl	Timer_Infrared_1_ReadCapture
 843 001c 0346     		mov	r3, r0
 844 001e 1A46     		mov	r2, r3
 845 0020 40F20003 		movw	r3, #:lower16:inf_rise
 846 0024 C0F20003 		movt	r3, #:upper16:inf_rise
 847 0028 5A60     		str	r2, [r3, #4]
 208:.\main.c      ****     updateSensorPos(1);
 848              		.loc 1 208 0
 849 002a 4FF00100 		mov	r0, #1
 850 002e FFF7FEFF 		bl	updateSensorPos
 209:.\main.c      **** }
 851              		.loc 1 209 0
 852 0032 80BD     		pop	{r7, pc}
 853              		.cfi_endproc
 854              	.LFE35:
 855              		.size	inter_infrared_rising_1, .-inter_infrared_rising_1
 856              		.section	.text.inter_infrared_falling_1,"ax",%progbits
 857              		.align	2
 858              		.global	inter_infrared_falling_1
 859              		.thumb
 860              		.thumb_func
 861              		.type	inter_infrared_falling_1, %function
 862              	inter_infrared_falling_1:
 863              	.LFB36:
 210:.\main.c      **** 
 211:.\main.c      **** CY_ISR(inter_infrared_falling_1) {
 864              		.loc 1 211 0
 865              		.cfi_startproc
 866              		@ args = 0, pretend = 0, frame = 16
 867              		@ frame_needed = 1, uses_anonymous_args = 0
 868 0000 80B5     		push	{r7, lr}
ARM GAS  C:\Users\dwguo\AppData\Local\Temp\ccX6G6Oe.s 			page 20


 869              	.LCFI19:
 870              		.cfi_def_cfa_offset 8
 871 0002 84B0     		sub	sp, sp, #16
 872              	.LCFI20:
 873              		.cfi_def_cfa_offset 24
 874 0004 00AF     		add	r7, sp, #0
 875              		.cfi_offset 14, -4
 876              		.cfi_offset 7, -8
 877              	.LCFI21:
 878              		.cfi_def_cfa_register 7
 212:.\main.c      ****     char strbuffer[15];
 213:.\main.c      ****     inf_fall[1] = (int) Timer_Infrared_1_ReadCapture();
 879              		.loc 1 213 0
 880 0006 FFF7FEFF 		bl	Timer_Infrared_1_ReadCapture
 881 000a 0346     		mov	r3, r0
 882 000c 1A46     		mov	r2, r3
 883 000e 40F20003 		movw	r3, #:lower16:inf_fall
 884 0012 C0F20003 		movt	r3, #:upper16:inf_fall
 885 0016 5A60     		str	r2, [r3, #4]
 214:.\main.c      ****     n_fallingEdges[1] += 1;
 886              		.loc 1 214 0
 887 0018 40F20003 		movw	r3, #:lower16:n_fallingEdges
 888 001c C0F20003 		movt	r3, #:upper16:n_fallingEdges
 889 0020 5B68     		ldr	r3, [r3, #4]
 890 0022 03F10102 		add	r2, r3, #1
 891 0026 40F20003 		movw	r3, #:lower16:n_fallingEdges
 892 002a C0F20003 		movt	r3, #:upper16:n_fallingEdges
 893 002e 5A60     		str	r2, [r3, #4]
 215:.\main.c      ****     
 216:.\main.c      ****     sprintf(strbuffer, "%i", n_fallingEdges[1]);
 894              		.loc 1 216 0
 895 0030 40F20003 		movw	r3, #:lower16:n_fallingEdges
 896 0034 C0F20003 		movt	r3, #:upper16:n_fallingEdges
 897 0038 5B68     		ldr	r3, [r3, #4]
 898 003a 3A46     		mov	r2, r7
 899 003c 1046     		mov	r0, r2
 900 003e 40F20001 		movw	r1, #:lower16:.LC0
 901 0042 C0F20001 		movt	r1, #:upper16:.LC0
 902 0046 1A46     		mov	r2, r3
 903 0048 FFF7FEFF 		bl	sprintf
 217:.\main.c      ****     LCD_Position(0,7);
 904              		.loc 1 217 0
 905 004c 4FF00000 		mov	r0, #0
 906 0050 4FF00701 		mov	r1, #7
 907 0054 FFF7FEFF 		bl	LCD_Position
 218:.\main.c      ****     LCD_PrintString(strbuffer);
 908              		.loc 1 218 0
 909 0058 3B46     		mov	r3, r7
 910 005a 1846     		mov	r0, r3
 911 005c FFF7FEFF 		bl	LCD_PrintString
 219:.\main.c      **** }
 912              		.loc 1 219 0
 913 0060 07F11007 		add	r7, r7, #16
 914 0064 BD46     		mov	sp, r7
 915 0066 80BD     		pop	{r7, pc}
 916              		.cfi_endproc
 917              	.LFE36:
ARM GAS  C:\Users\dwguo\AppData\Local\Temp\ccX6G6Oe.s 			page 21


 918              		.size	inter_infrared_falling_1, .-inter_infrared_falling_1
 919              		.section	.text.inter_infrared_rising_2,"ax",%progbits
 920              		.align	2
 921              		.global	inter_infrared_rising_2
 922              		.thumb
 923              		.thumb_func
 924              		.type	inter_infrared_rising_2, %function
 925              	inter_infrared_rising_2:
 926              	.LFB37:
 220:.\main.c      **** 
 221:.\main.c      **** // 3
 222:.\main.c      **** CY_ISR(inter_infrared_rising_2) {
 927              		.loc 1 222 0
 928              		.cfi_startproc
 929              		@ args = 0, pretend = 0, frame = 0
 930              		@ frame_needed = 1, uses_anonymous_args = 0
 931 0000 80B5     		push	{r7, lr}
 932              	.LCFI22:
 933              		.cfi_def_cfa_offset 8
 934 0002 00AF     		add	r7, sp, #0
 935              		.cfi_offset 14, -4
 936              		.cfi_offset 7, -8
 937              	.LCFI23:
 938              		.cfi_def_cfa_register 7
 223:.\main.c      ****     inf_rise_prev[2] = inf_rise[2];
 939              		.loc 1 223 0
 940 0004 40F20003 		movw	r3, #:lower16:inf_rise
 941 0008 C0F20003 		movt	r3, #:upper16:inf_rise
 942 000c 9A68     		ldr	r2, [r3, #8]
 943 000e 40F20003 		movw	r3, #:lower16:inf_rise_prev
 944 0012 C0F20003 		movt	r3, #:upper16:inf_rise_prev
 945 0016 9A60     		str	r2, [r3, #8]
 224:.\main.c      ****     inf_rise[2] = (int) Timer_Infrared_2_ReadCapture();
 946              		.loc 1 224 0
 947 0018 FFF7FEFF 		bl	Timer_Infrared_2_ReadCapture
 948 001c 0346     		mov	r3, r0
 949 001e 1A46     		mov	r2, r3
 950 0020 40F20003 		movw	r3, #:lower16:inf_rise
 951 0024 C0F20003 		movt	r3, #:upper16:inf_rise
 952 0028 9A60     		str	r2, [r3, #8]
 225:.\main.c      ****     updateSensorPos(2);
 953              		.loc 1 225 0
 954 002a 4FF00200 		mov	r0, #2
 955 002e FFF7FEFF 		bl	updateSensorPos
 226:.\main.c      **** }
 956              		.loc 1 226 0
 957 0032 80BD     		pop	{r7, pc}
 958              		.cfi_endproc
 959              	.LFE37:
 960              		.size	inter_infrared_rising_2, .-inter_infrared_rising_2
 961              		.section	.text.inter_infrared_falling_2,"ax",%progbits
 962              		.align	2
 963              		.global	inter_infrared_falling_2
 964              		.thumb
 965              		.thumb_func
 966              		.type	inter_infrared_falling_2, %function
 967              	inter_infrared_falling_2:
ARM GAS  C:\Users\dwguo\AppData\Local\Temp\ccX6G6Oe.s 			page 22


 968              	.LFB38:
 227:.\main.c      **** 
 228:.\main.c      **** CY_ISR(inter_infrared_falling_2) {
 969              		.loc 1 228 0
 970              		.cfi_startproc
 971              		@ args = 0, pretend = 0, frame = 16
 972              		@ frame_needed = 1, uses_anonymous_args = 0
 973 0000 80B5     		push	{r7, lr}
 974              	.LCFI24:
 975              		.cfi_def_cfa_offset 8
 976 0002 84B0     		sub	sp, sp, #16
 977              	.LCFI25:
 978              		.cfi_def_cfa_offset 24
 979 0004 00AF     		add	r7, sp, #0
 980              		.cfi_offset 14, -4
 981              		.cfi_offset 7, -8
 982              	.LCFI26:
 983              		.cfi_def_cfa_register 7
 229:.\main.c      ****     char strbuffer[15];
 230:.\main.c      ****     inf_fall[2] = (int) Timer_Infrared_2_ReadCapture();
 984              		.loc 1 230 0
 985 0006 FFF7FEFF 		bl	Timer_Infrared_2_ReadCapture
 986 000a 0346     		mov	r3, r0
 987 000c 1A46     		mov	r2, r3
 988 000e 40F20003 		movw	r3, #:lower16:inf_fall
 989 0012 C0F20003 		movt	r3, #:upper16:inf_fall
 990 0016 9A60     		str	r2, [r3, #8]
 231:.\main.c      ****     n_fallingEdges[2] += 1;
 991              		.loc 1 231 0
 992 0018 40F20003 		movw	r3, #:lower16:n_fallingEdges
 993 001c C0F20003 		movt	r3, #:upper16:n_fallingEdges
 994 0020 9B68     		ldr	r3, [r3, #8]
 995 0022 03F10102 		add	r2, r3, #1
 996 0026 40F20003 		movw	r3, #:lower16:n_fallingEdges
 997 002a C0F20003 		movt	r3, #:upper16:n_fallingEdges
 998 002e 9A60     		str	r2, [r3, #8]
 232:.\main.c      ****     
 233:.\main.c      ****     sprintf(strbuffer, "%i", n_fallingEdges[2]);
 999              		.loc 1 233 0
 1000 0030 40F20003 		movw	r3, #:lower16:n_fallingEdges
 1001 0034 C0F20003 		movt	r3, #:upper16:n_fallingEdges
 1002 0038 9B68     		ldr	r3, [r3, #8]
 1003 003a 3A46     		mov	r2, r7
 1004 003c 1046     		mov	r0, r2
 1005 003e 40F20001 		movw	r1, #:lower16:.LC0
 1006 0042 C0F20001 		movt	r1, #:upper16:.LC0
 1007 0046 1A46     		mov	r2, r3
 1008 0048 FFF7FEFF 		bl	sprintf
 234:.\main.c      ****     LCD_Position(1,0);
 1009              		.loc 1 234 0
 1010 004c 4FF00100 		mov	r0, #1
 1011 0050 4FF00001 		mov	r1, #0
 1012 0054 FFF7FEFF 		bl	LCD_Position
 235:.\main.c      ****     LCD_PrintString(strbuffer);
 1013              		.loc 1 235 0
 1014 0058 3B46     		mov	r3, r7
 1015 005a 1846     		mov	r0, r3
ARM GAS  C:\Users\dwguo\AppData\Local\Temp\ccX6G6Oe.s 			page 23


 1016 005c FFF7FEFF 		bl	LCD_PrintString
 236:.\main.c      **** }
 1017              		.loc 1 236 0
 1018 0060 07F11007 		add	r7, r7, #16
 1019 0064 BD46     		mov	sp, r7
 1020 0066 80BD     		pop	{r7, pc}
 1021              		.cfi_endproc
 1022              	.LFE38:
 1023              		.size	inter_infrared_falling_2, .-inter_infrared_falling_2
 1024              		.section	.text.inter_infrared_rising_3,"ax",%progbits
 1025              		.align	2
 1026              		.global	inter_infrared_rising_3
 1027              		.thumb
 1028              		.thumb_func
 1029              		.type	inter_infrared_rising_3, %function
 1030              	inter_infrared_rising_3:
 1031              	.LFB39:
 237:.\main.c      **** 
 238:.\main.c      **** // 4
 239:.\main.c      **** CY_ISR(inter_infrared_rising_3) {
 1032              		.loc 1 239 0
 1033              		.cfi_startproc
 1034              		@ args = 0, pretend = 0, frame = 0
 1035              		@ frame_needed = 1, uses_anonymous_args = 0
 1036 0000 80B5     		push	{r7, lr}
 1037              	.LCFI27:
 1038              		.cfi_def_cfa_offset 8
 1039 0002 00AF     		add	r7, sp, #0
 1040              		.cfi_offset 14, -4
 1041              		.cfi_offset 7, -8
 1042              	.LCFI28:
 1043              		.cfi_def_cfa_register 7
 240:.\main.c      ****     inf_rise_prev[3] = inf_rise[3];
 1044              		.loc 1 240 0
 1045 0004 40F20003 		movw	r3, #:lower16:inf_rise
 1046 0008 C0F20003 		movt	r3, #:upper16:inf_rise
 1047 000c DA68     		ldr	r2, [r3, #12]
 1048 000e 40F20003 		movw	r3, #:lower16:inf_rise_prev
 1049 0012 C0F20003 		movt	r3, #:upper16:inf_rise_prev
 1050 0016 DA60     		str	r2, [r3, #12]
 241:.\main.c      ****     inf_rise[3] = (int) Timer_Infrared_3_ReadCapture();
 1051              		.loc 1 241 0
 1052 0018 FFF7FEFF 		bl	Timer_Infrared_3_ReadCapture
 1053 001c 0346     		mov	r3, r0
 1054 001e 1A46     		mov	r2, r3
 1055 0020 40F20003 		movw	r3, #:lower16:inf_rise
 1056 0024 C0F20003 		movt	r3, #:upper16:inf_rise
 1057 0028 DA60     		str	r2, [r3, #12]
 242:.\main.c      ****     updateSensorPos(3);
 1058              		.loc 1 242 0
 1059 002a 4FF00300 		mov	r0, #3
 1060 002e FFF7FEFF 		bl	updateSensorPos
 243:.\main.c      **** }
 1061              		.loc 1 243 0
 1062 0032 80BD     		pop	{r7, pc}
 1063              		.cfi_endproc
 1064              	.LFE39:
ARM GAS  C:\Users\dwguo\AppData\Local\Temp\ccX6G6Oe.s 			page 24


 1065              		.size	inter_infrared_rising_3, .-inter_infrared_rising_3
 1066              		.section	.text.inter_infrared_falling_3,"ax",%progbits
 1067              		.align	2
 1068              		.global	inter_infrared_falling_3
 1069              		.thumb
 1070              		.thumb_func
 1071              		.type	inter_infrared_falling_3, %function
 1072              	inter_infrared_falling_3:
 1073              	.LFB40:
 244:.\main.c      **** 
 245:.\main.c      **** CY_ISR(inter_infrared_falling_3) {
 1074              		.loc 1 245 0
 1075              		.cfi_startproc
 1076              		@ args = 0, pretend = 0, frame = 16
 1077              		@ frame_needed = 1, uses_anonymous_args = 0
 1078 0000 80B5     		push	{r7, lr}
 1079              	.LCFI29:
 1080              		.cfi_def_cfa_offset 8
 1081 0002 84B0     		sub	sp, sp, #16
 1082              	.LCFI30:
 1083              		.cfi_def_cfa_offset 24
 1084 0004 00AF     		add	r7, sp, #0
 1085              		.cfi_offset 14, -4
 1086              		.cfi_offset 7, -8
 1087              	.LCFI31:
 1088              		.cfi_def_cfa_register 7
 246:.\main.c      ****     char strbuffer[15];
 247:.\main.c      ****     inf_fall[3] = (int) Timer_Infrared_3_ReadCapture();
 1089              		.loc 1 247 0
 1090 0006 FFF7FEFF 		bl	Timer_Infrared_3_ReadCapture
 1091 000a 0346     		mov	r3, r0
 1092 000c 1A46     		mov	r2, r3
 1093 000e 40F20003 		movw	r3, #:lower16:inf_fall
 1094 0012 C0F20003 		movt	r3, #:upper16:inf_fall
 1095 0016 DA60     		str	r2, [r3, #12]
 248:.\main.c      ****     n_fallingEdges[3] += 1;
 1096              		.loc 1 248 0
 1097 0018 40F20003 		movw	r3, #:lower16:n_fallingEdges
 1098 001c C0F20003 		movt	r3, #:upper16:n_fallingEdges
 1099 0020 DB68     		ldr	r3, [r3, #12]
 1100 0022 03F10102 		add	r2, r3, #1
 1101 0026 40F20003 		movw	r3, #:lower16:n_fallingEdges
 1102 002a C0F20003 		movt	r3, #:upper16:n_fallingEdges
 1103 002e DA60     		str	r2, [r3, #12]
 249:.\main.c      ****     
 250:.\main.c      ****     sprintf(strbuffer, "%i", n_fallingEdges[3]);
 1104              		.loc 1 250 0
 1105 0030 40F20003 		movw	r3, #:lower16:n_fallingEdges
 1106 0034 C0F20003 		movt	r3, #:upper16:n_fallingEdges
 1107 0038 DB68     		ldr	r3, [r3, #12]
 1108 003a 3A46     		mov	r2, r7
 1109 003c 1046     		mov	r0, r2
 1110 003e 40F20001 		movw	r1, #:lower16:.LC0
 1111 0042 C0F20001 		movt	r1, #:upper16:.LC0
 1112 0046 1A46     		mov	r2, r3
 1113 0048 FFF7FEFF 		bl	sprintf
 251:.\main.c      ****     LCD_Position(1,7);
ARM GAS  C:\Users\dwguo\AppData\Local\Temp\ccX6G6Oe.s 			page 25


 1114              		.loc 1 251 0
 1115 004c 4FF00100 		mov	r0, #1
 1116 0050 4FF00701 		mov	r1, #7
 1117 0054 FFF7FEFF 		bl	LCD_Position
 252:.\main.c      ****     LCD_PrintString(strbuffer);
 1118              		.loc 1 252 0
 1119 0058 3B46     		mov	r3, r7
 1120 005a 1846     		mov	r0, r3
 1121 005c FFF7FEFF 		bl	LCD_PrintString
 253:.\main.c      **** }
 1122              		.loc 1 253 0
 1123 0060 07F11007 		add	r7, r7, #16
 1124 0064 BD46     		mov	sp, r7
 1125 0066 80BD     		pop	{r7, pc}
 1126              		.cfi_endproc
 1127              	.LFE40:
 1128              		.size	inter_infrared_falling_3, .-inter_infrared_falling_3
 1129              		.section	.text.main,"ax",%progbits
 1130              		.align	2
 1131              		.global	main
 1132              		.thumb
 1133              		.thumb_func
 1134              		.type	main, %function
 1135              	main:
 1136              	.LFB41:
 254:.\main.c      **** 
 255:.\main.c      **** /*
 256:.\main.c      **** static void printSensorPos(int id) {
 257:.\main.c      ****     char strbuffer[15];
 258:.\main.c      ****     //int clk = 24000;
 259:.\main.c      ****     
 260:.\main.c      ****     //double dx = (double) inf_dx[id] / clk;
 261:.\main.c      ****     //double dy = (double) inf_dy[id] / clk;
 262:.\main.c      ****     
 263:.\main.c      ****     if (id == 0) {
 264:.\main.c      ****         sprintf(strbuffer, "%.1f", inf_dx[id]);
 265:.\main.c      ****         LCD_Position(0,0);
 266:.\main.c      ****         LCD_PrintString(strbuffer);
 267:.\main.c      ****         
 268:.\main.c      ****         sprintf(strbuffer, "%.1f", inf_dy[id]);
 269:.\main.c      ****         LCD_Position(1,0);
 270:.\main.c      ****         LCD_PrintString(strbuffer);
 271:.\main.c      ****         
 272:.\main.c      ****     }
 273:.\main.c      ****     else if (id == 1) {
 274:.\main.c      ****         sprintf(strbuffer, "%.1f", inf_dx[id]);
 275:.\main.c      ****         LCD_Position(0,4);
 276:.\main.c      ****         LCD_PrintString(strbuffer);
 277:.\main.c      ****         
 278:.\main.c      ****         sprintf(strbuffer, "%.1f", inf_dy[id]);
 279:.\main.c      ****         LCD_Position(1,4);
 280:.\main.c      ****         LCD_PrintString(strbuffer);
 281:.\main.c      ****     }
 282:.\main.c      ****     else if (id == 2) {
 283:.\main.c      ****         sprintf(strbuffer, "%.1f", inf_dx[id]);
 284:.\main.c      ****         LCD_Position(0,8);
 285:.\main.c      ****         LCD_PrintString(strbuffer);
ARM GAS  C:\Users\dwguo\AppData\Local\Temp\ccX6G6Oe.s 			page 26


 286:.\main.c      ****         
 287:.\main.c      ****         sprintf(strbuffer, "%.1f", inf_dy[id]);
 288:.\main.c      ****         LCD_Position(1,8);
 289:.\main.c      ****         LCD_PrintString(strbuffer);
 290:.\main.c      ****     }
 291:.\main.c      ****     else if (id == 3) {
 292:.\main.c      ****         sprintf(strbuffer, "%.1f", inf_dx[id]);
 293:.\main.c      ****         LCD_Position(0,12);
 294:.\main.c      ****         LCD_PrintString(strbuffer);
 295:.\main.c      ****         
 296:.\main.c      ****         sprintf(strbuffer, "%.1f", inf_dy[id]);
 297:.\main.c      ****         LCD_Position(1,12);
 298:.\main.c      ****         LCD_PrintString(strbuffer);
 299:.\main.c      ****     }
 300:.\main.c      **** }*/
 301:.\main.c      **** 
 302:.\main.c      **** /*
 303:.\main.c      **** int updateSensorOpt(int id) {
 304:.\main.c      ****     if (xUpdated && yUpdated) return 1;
 305:.\main.c      ****     
 306:.\main.c      ****     //char strbuffer[15]; 
 307:.\main.c      ****     if (risingEdge[id] != 1) return 0;
 308:.\main.c      ****     risingEdge[id] = 0;
 309:.\main.c      ****     
 310:.\main.c      ****     int n_counts;
 311:.\main.c      ****     if (inf_fall[id] > inf_rise[id]) {
 312:.\main.c      ****         n_counts = inf_fall[id] - inf_rise[id];
 313:.\main.c      ****     }
 314:.\main.c      ****     else {
 315:.\main.c      ****         n_counts = inf_fall[id] + (inf_timer_count - inf_rise[id]);
 316:.\main.c      ****     }
 317:.\main.c      ****     
 318:.\main.c      ****     int sync_width = n_counts / 24;
 319:.\main.c      ****     if (sync_width < 40) {
 320:.\main.c      ****         int dt;
 321:.\main.c      ****         if (inf_rise_prev[id] > inf_fall[id]) {
 322:.\main.c      ****             dt = inf_rise_prev[id] - inf_fall[id];
 323:.\main.c      ****         }
 324:.\main.c      ****         else {
 325:.\main.c      ****             dt = inf_rise_prev[id] + (inf_timer_count - inf_fall[id]);
 326:.\main.c      ****         }
 327:.\main.c      ****         
 328:.\main.c      ****         if (xUpdated && axis[id] == 0) return 0;
 329:.\main.c      ****         else if (yUpdated && axis[id] == 1) return 0;
 330:.\main.c      ****         
 331:.\main.c      ****         sendWireless(id, dt, axis[id]);
 332:.\main.c      ****         if (axis[id] == 0) {
 333:.\main.c      ****             xUpdated = 1;
 334:.\main.c      ****         }
 335:.\main.c      ****         else {
 336:.\main.c      ****             yUpdated = 1;
 337:.\main.c      ****         }
 338:.\main.c      ****     }
 339:.\main.c      ****     else if (abs(sync_width - 63) <= timing_tolerance) {
 340:.\main.c      ****         skip = 0;
 341:.\main.c      ****         axis[id] = 0;
 342:.\main.c      ****     }
ARM GAS  C:\Users\dwguo\AppData\Local\Temp\ccX6G6Oe.s 			page 27


 343:.\main.c      ****     else if (abs(sync_width - 73) <= timing_tolerance) {
 344:.\main.c      ****         skip = 0;
 345:.\main.c      ****         axis[id] = 1;
 346:.\main.c      ****     }
 347:.\main.c      ****     else if (abs(sync_width - 83) <= timing_tolerance) {
 348:.\main.c      ****         skip = 0;
 349:.\main.c      ****         axis[id] = 0;
 350:.\main.c      ****     }
 351:.\main.c      ****     else if (abs(sync_width - 94) <= timing_tolerance) {
 352:.\main.c      ****         skip = 0;
 353:.\main.c      ****         axis[id] = 1;
 354:.\main.c      ****     }
 355:.\main.c      ****     return 0;
 356:.\main.c      **** }*/
 357:.\main.c      **** 
 358:.\main.c      **** void main() {   
 1137              		.loc 1 358 0
 1138              		.cfi_startproc
 1139              		@ args = 0, pretend = 0, frame = 0
 1140              		@ frame_needed = 1, uses_anonymous_args = 0
 1141 0000 80B5     		push	{r7, lr}
 1142              	.LCFI32:
 1143              		.cfi_def_cfa_offset 8
 1144 0002 00AF     		add	r7, sp, #0
 1145              		.cfi_offset 14, -4
 1146              		.cfi_offset 7, -8
 1147              	.LCFI33:
 1148              		.cfi_def_cfa_register 7
 359:.\main.c      ****     //char strbuffer[15];
 360:.\main.c      ****     i = 0;
 1149              		.loc 1 360 0
 1150 0004 40F20003 		movw	r3, #:lower16:i
 1151 0008 C0F20003 		movt	r3, #:upper16:i
 1152 000c 4FF00002 		mov	r2, #0
 1153 0010 1A60     		str	r2, [r3, #0]
 361:.\main.c      ****     j = 0;
 1154              		.loc 1 361 0
 1155 0012 40F20003 		movw	r3, #:lower16:j
 1156 0016 C0F20003 		movt	r3, #:upper16:j
 1157 001a 4FF00002 		mov	r2, #0
 1158 001e 1A60     		str	r2, [r3, #0]
 362:.\main.c      ****     
 363:.\main.c      ****     // initialize components
 364:.\main.c      ****     CyGlobalIntEnable; // enable global interrupts
 1159              		.loc 1 364 0
 1160              	@ 364 ".\main.c" 1
 1161 0020 62B6     		CPSIE   i
 1162              	@ 0 "" 2
 365:.\main.c      ****     inter_HE_Start();
 1163              		.loc 1 365 0
 1164              		.thumb
 1165 0022 FFF7FEFF 		bl	inter_HE_Start
 366:.\main.c      ****     inter_HE_SetVector(inter_HE);
 1166              		.loc 1 366 0
 1167 0026 40F20000 		movw	r0, #:lower16:inter_HE
 1168 002a C0F20000 		movt	r0, #:upper16:inter_HE
 1169 002e FFF7FEFF 		bl	inter_HE_SetVector
ARM GAS  C:\Users\dwguo\AppData\Local\Temp\ccX6G6Oe.s 			page 28


 367:.\main.c      ****     
 368:.\main.c      ****     // 1
 369:.\main.c      ****     inter_infrared_rising_0_Start();
 1170              		.loc 1 369 0
 1171 0032 FFF7FEFF 		bl	inter_infrared_rising_0_Start
 370:.\main.c      ****     inter_infrared_rising_0_SetVector(inter_infrared_rising_0);
 1172              		.loc 1 370 0
 1173 0036 40F20000 		movw	r0, #:lower16:inter_infrared_rising_0
 1174 003a C0F20000 		movt	r0, #:upper16:inter_infrared_rising_0
 1175 003e FFF7FEFF 		bl	inter_infrared_rising_0_SetVector
 371:.\main.c      ****     inter_infrared_falling_0_Start();
 1176              		.loc 1 371 0
 1177 0042 FFF7FEFF 		bl	inter_infrared_falling_0_Start
 372:.\main.c      ****     inter_infrared_falling_0_SetVector(inter_infrared_falling_0);
 1178              		.loc 1 372 0
 1179 0046 40F20000 		movw	r0, #:lower16:inter_infrared_falling_0
 1180 004a C0F20000 		movt	r0, #:upper16:inter_infrared_falling_0
 1181 004e FFF7FEFF 		bl	inter_infrared_falling_0_SetVector
 373:.\main.c      ****     
 374:.\main.c      ****     // 2
 375:.\main.c      ****     inter_infrared_rising_1_Start();
 1182              		.loc 1 375 0
 1183 0052 FFF7FEFF 		bl	inter_infrared_rising_1_Start
 376:.\main.c      ****     inter_infrared_rising_1_SetVector(inter_infrared_rising_1);
 1184              		.loc 1 376 0
 1185 0056 40F20000 		movw	r0, #:lower16:inter_infrared_rising_1
 1186 005a C0F20000 		movt	r0, #:upper16:inter_infrared_rising_1
 1187 005e FFF7FEFF 		bl	inter_infrared_rising_1_SetVector
 377:.\main.c      ****     inter_infrared_falling_1_Start();
 1188              		.loc 1 377 0
 1189 0062 FFF7FEFF 		bl	inter_infrared_falling_1_Start
 378:.\main.c      ****     inter_infrared_falling_1_SetVector(inter_infrared_falling_1);
 1190              		.loc 1 378 0
 1191 0066 40F20000 		movw	r0, #:lower16:inter_infrared_falling_1
 1192 006a C0F20000 		movt	r0, #:upper16:inter_infrared_falling_1
 1193 006e FFF7FEFF 		bl	inter_infrared_falling_1_SetVector
 379:.\main.c      ****     
 380:.\main.c      ****     // 3
 381:.\main.c      ****     inter_infrared_rising_2_Start();
 1194              		.loc 1 381 0
 1195 0072 FFF7FEFF 		bl	inter_infrared_rising_2_Start
 382:.\main.c      ****     inter_infrared_rising_2_SetVector(inter_infrared_rising_2);
 1196              		.loc 1 382 0
 1197 0076 40F20000 		movw	r0, #:lower16:inter_infrared_rising_2
 1198 007a C0F20000 		movt	r0, #:upper16:inter_infrared_rising_2
 1199 007e FFF7FEFF 		bl	inter_infrared_rising_2_SetVector
 383:.\main.c      ****     inter_infrared_falling_2_Start();
 1200              		.loc 1 383 0
 1201 0082 FFF7FEFF 		bl	inter_infrared_falling_2_Start
 384:.\main.c      ****     inter_infrared_falling_2_SetVector(inter_infrared_falling_2);
 1202              		.loc 1 384 0
 1203 0086 40F20000 		movw	r0, #:lower16:inter_infrared_falling_2
 1204 008a C0F20000 		movt	r0, #:upper16:inter_infrared_falling_2
 1205 008e FFF7FEFF 		bl	inter_infrared_falling_2_SetVector
 385:.\main.c      ****     
 386:.\main.c      ****     // 4
 387:.\main.c      ****     inter_infrared_rising_3_Start();
ARM GAS  C:\Users\dwguo\AppData\Local\Temp\ccX6G6Oe.s 			page 29


 1206              		.loc 1 387 0
 1207 0092 FFF7FEFF 		bl	inter_infrared_rising_3_Start
 388:.\main.c      ****     inter_infrared_rising_3_SetVector(inter_infrared_rising_3);
 1208              		.loc 1 388 0
 1209 0096 40F20000 		movw	r0, #:lower16:inter_infrared_rising_3
 1210 009a C0F20000 		movt	r0, #:upper16:inter_infrared_rising_3
 1211 009e FFF7FEFF 		bl	inter_infrared_rising_3_SetVector
 389:.\main.c      ****     inter_infrared_falling_3_Start();
 1212              		.loc 1 389 0
 1213 00a2 FFF7FEFF 		bl	inter_infrared_falling_3_Start
 390:.\main.c      ****     inter_infrared_falling_3_SetVector(inter_infrared_falling_3);
 1214              		.loc 1 390 0
 1215 00a6 40F20000 		movw	r0, #:lower16:inter_infrared_falling_3
 1216 00aa C0F20000 		movt	r0, #:upper16:inter_infrared_falling_3
 1217 00ae FFF7FEFF 		bl	inter_infrared_falling_3_SetVector
 391:.\main.c      ****     
 392:.\main.c      ****     PWM_Motor_Start();
 1218              		.loc 1 392 0
 1219 00b2 FFF7FEFF 		bl	PWM_Motor_Start
 393:.\main.c      ****     PWM_Servo_Start();
 1220              		.loc 1 393 0
 1221 00b6 FFF7FEFF 		bl	PWM_Servo_Start
 394:.\main.c      ****     
 395:.\main.c      ****     Timer_HE_Start();
 1222              		.loc 1 395 0
 1223 00ba FFF7FEFF 		bl	Timer_HE_Start
 396:.\main.c      ****     Timer_Infrared_0_Start();
 1224              		.loc 1 396 0
 1225 00be FFF7FEFF 		bl	Timer_Infrared_0_Start
 397:.\main.c      ****     Timer_Infrared_1_Start();
 1226              		.loc 1 397 0
 1227 00c2 FFF7FEFF 		bl	Timer_Infrared_1_Start
 398:.\main.c      ****     Timer_Infrared_2_Start();
 1228              		.loc 1 398 0
 1229 00c6 FFF7FEFF 		bl	Timer_Infrared_2_Start
 399:.\main.c      ****     Timer_Infrared_3_Start();
 1230              		.loc 1 399 0
 1231 00ca FFF7FEFF 		bl	Timer_Infrared_3_Start
 400:.\main.c      ****     
 401:.\main.c      ****     Clock_Motor_Start();
 1232              		.loc 1 401 0
 1233 00ce FFF7FEFF 		bl	Clock_Motor_Start
 402:.\main.c      ****     Clock_Servo_Start(); 
 1234              		.loc 1 402 0
 1235 00d2 FFF7FEFF 		bl	Clock_Servo_Start
 403:.\main.c      ****     Clock_Infrared_Start();
 1236              		.loc 1 403 0
 1237 00d6 FFF7FEFF 		bl	Clock_Infrared_Start
 404:.\main.c      ****     
 405:.\main.c      ****     UART_Start();
 1238              		.loc 1 405 0
 1239 00da FFF7FEFF 		bl	UART_Start
 406:.\main.c      ****     LCD_Start();
 1240              		.loc 1 406 0
 1241 00de FFF7FEFF 		bl	LCD_Start
 407:.\main.c      ****     
 408:.\main.c      ****     // initialize variables
ARM GAS  C:\Users\dwguo\AppData\Local\Temp\ccX6G6Oe.s 			page 30


 409:.\main.c      ****     delta_t = 0;
 1242              		.loc 1 409 0
 1243 00e2 40F20003 		movw	r3, #:lower16:delta_t
 1244 00e6 C0F20003 		movt	r3, #:upper16:delta_t
 1245 00ea 4FF00000 		mov	r0, #0
 1246 00ee 4FF00001 		mov	r1, #0
 1247 00f2 C3E90001 		strd	r0, [r3]
 410:.\main.c      ****     err_current = 0;
 1248              		.loc 1 410 0
 1249 00f6 40F20003 		movw	r3, #:lower16:err_current
 1250 00fa C0F20003 		movt	r3, #:upper16:err_current
 1251 00fe 4FF00000 		mov	r0, #0
 1252 0102 4FF00001 		mov	r1, #0
 1253 0106 C3E90001 		strd	r0, [r3]
 411:.\main.c      ****     error_sum = 0;
 1254              		.loc 1 411 0
 1255 010a 40F20003 		movw	r3, #:lower16:error_sum
 1256 010e C0F20003 		movt	r3, #:upper16:error_sum
 1257 0112 4FF00000 		mov	r0, #0
 1258 0116 4FF00001 		mov	r1, #0
 1259 011a C3E90001 		strd	r0, [r3]
 412:.\main.c      ****     output_initial = 60;
 1260              		.loc 1 412 0
 1261 011e 40F20003 		movw	r3, #:lower16:output_initial
 1262 0122 C0F20003 		movt	r3, #:upper16:output_initial
 1263 0126 4FF03C02 		mov	r2, #60
 1264 012a 1A60     		str	r2, [r3, #0]
 413:.\main.c      ****     output_current = output_initial;
 1265              		.loc 1 413 0
 1266 012c 40F20003 		movw	r3, #:lower16:output_initial
 1267 0130 C0F20003 		movt	r3, #:upper16:output_initial
 1268 0134 1B68     		ldr	r3, [r3, #0]
 1269 0136 1846     		mov	r0, r3
 1270 0138 FFF7FEFF 		bl	__aeabi_i2d
 1271 013c 40F20003 		movw	r3, #:lower16:output_current
 1272 0140 C0F20003 		movt	r3, #:upper16:output_current
 1273 0144 C3E90001 		strd	r0, [r3]
 414:.\main.c      ****     
 415:.\main.c      ****     // initialize pid control variables
 416:.\main.c      ****     kp = 30;
 1274              		.loc 1 416 0
 1275 0148 40F20003 		movw	r3, #:lower16:kp
 1276 014c C0F20003 		movt	r3, #:upper16:kp
 1277 0150 4FF00000 		mov	r0, #0
 1278 0154 4FF08041 		mov	r1, #1073741824
 1279 0158 01F57811 		add	r1, r1, #4063232
 1280 015c C3E90001 		strd	r0, [r3]
 417:.\main.c      ****     ki = 10;
 1281              		.loc 1 417 0
 1282 0160 40F20003 		movw	r3, #:lower16:ki
 1283 0164 C0F20003 		movt	r3, #:upper16:ki
 1284 0168 4FF00000 		mov	r0, #0
 1285 016c 4FF08041 		mov	r1, #1073741824
 1286 0170 01F51011 		add	r1, r1, #2359296
 1287 0174 C3E90001 		strd	r0, [r3]
 418:.\main.c      ****     
 419:.\main.c      ****     speed = 0;
ARM GAS  C:\Users\dwguo\AppData\Local\Temp\ccX6G6Oe.s 			page 31


 1288              		.loc 1 419 0
 1289 0178 40F20003 		movw	r3, #:lower16:speed
 1290 017c C0F20003 		movt	r3, #:upper16:speed
 1291 0180 4FF00000 		mov	r0, #0
 1292 0184 4FF00001 		mov	r1, #0
 1293 0188 C3E90001 		strd	r0, [r3]
 420:.\main.c      ****     
 421:.\main.c      ****     /*---------------------infrared tracking----------------------------*/
 422:.\main.c      ****     zeroIntArr(inf_rise, n_sensors);
 1294              		.loc 1 422 0
 1295 018c 40F20000 		movw	r0, #:lower16:inf_rise
 1296 0190 C0F20000 		movt	r0, #:upper16:inf_rise
 1297 0194 4FF00401 		mov	r1, #4
 1298 0198 FFF7FEFF 		bl	zeroIntArr
 423:.\main.c      ****     zeroIntArr(inf_rise_prev, n_sensors);
 1299              		.loc 1 423 0
 1300 019c 40F20000 		movw	r0, #:lower16:inf_rise_prev
 1301 01a0 C0F20000 		movt	r0, #:upper16:inf_rise_prev
 1302 01a4 4FF00401 		mov	r1, #4
 1303 01a8 FFF7FEFF 		bl	zeroIntArr
 424:.\main.c      ****     zeroIntArr(inf_fall, n_sensors);
 1304              		.loc 1 424 0
 1305 01ac 40F20000 		movw	r0, #:lower16:inf_fall
 1306 01b0 C0F20000 		movt	r0, #:upper16:inf_fall
 1307 01b4 4FF00401 		mov	r1, #4
 1308 01b8 FFF7FEFF 		bl	zeroIntArr
 425:.\main.c      ****     zeroIntArr(risingEdge, n_sensors);
 1309              		.loc 1 425 0
 1310 01bc 40F20000 		movw	r0, #:lower16:risingEdge
 1311 01c0 C0F20000 		movt	r0, #:upper16:risingEdge
 1312 01c4 4FF00401 		mov	r1, #4
 1313 01c8 FFF7FEFF 		bl	zeroIntArr
 426:.\main.c      ****     zeroIntArr(axis, n_sensors);
 1314              		.loc 1 426 0
 1315 01cc 40F20000 		movw	r0, #:lower16:axis
 1316 01d0 C0F20000 		movt	r0, #:upper16:axis
 1317 01d4 4FF00401 		mov	r1, #4
 1318 01d8 FFF7FEFF 		bl	zeroIntArr
 427:.\main.c      ****     zeroIntArr(n_fallingEdges, n_sensors);
 1319              		.loc 1 427 0
 1320 01dc 40F20000 		movw	r0, #:lower16:n_fallingEdges
 1321 01e0 C0F20000 		movt	r0, #:upper16:n_fallingEdges
 1322 01e4 4FF00401 		mov	r1, #4
 1323 01e8 FFF7FEFF 		bl	zeroIntArr
 428:.\main.c      ****     
 429:.\main.c      ****     skip = 0;
 1324              		.loc 1 429 0
 1325 01ec 40F20003 		movw	r3, #:lower16:skip
 1326 01f0 C0F20003 		movt	r3, #:upper16:skip
 1327 01f4 4FF00002 		mov	r2, #0
 1328 01f8 1A60     		str	r2, [r3, #0]
 430:.\main.c      ****     inf_dbg = 0;
 1329              		.loc 1 430 0
 1330 01fa 40F20003 		movw	r3, #:lower16:inf_dbg
 1331 01fe C0F20003 		movt	r3, #:upper16:inf_dbg
 1332 0202 4FF00002 		mov	r2, #0
 1333 0206 1A60     		str	r2, [r3, #0]
ARM GAS  C:\Users\dwguo\AppData\Local\Temp\ccX6G6Oe.s 			page 32


 431:.\main.c      ****     dbg3 = 0;
 1334              		.loc 1 431 0
 1335 0208 40F20003 		movw	r3, #:lower16:dbg3
 1336 020c C0F20003 		movt	r3, #:upper16:dbg3
 1337 0210 4FF00002 		mov	r2, #0
 1338 0214 1A60     		str	r2, [r3, #0]
 432:.\main.c      ****     
 433:.\main.c      ****     xUpdated = 0;
 1339              		.loc 1 433 0
 1340 0216 40F20003 		movw	r3, #:lower16:xUpdated
 1341 021a C0F20003 		movt	r3, #:upper16:xUpdated
 1342 021e 4FF00002 		mov	r2, #0
 1343 0222 1A60     		str	r2, [r3, #0]
 434:.\main.c      ****     yUpdated = 0;
 1344              		.loc 1 434 0
 1345 0224 40F20003 		movw	r3, #:lower16:yUpdated
 1346 0228 C0F20003 		movt	r3, #:upper16:yUpdated
 1347 022c 4FF00002 		mov	r2, #0
 1348 0230 1A60     		str	r2, [r3, #0]
 435:.\main.c      ****     
 436:.\main.c      ****     PWM_Motor_WriteCompare(output_initial);   // set initial PWM duty cycle
 1349              		.loc 1 436 0
 1350 0232 40F20003 		movw	r3, #:lower16:output_initial
 1351 0236 C0F20003 		movt	r3, #:upper16:output_initial
 1352 023a 1B68     		ldr	r3, [r3, #0]
 1353 023c DBB2     		uxtb	r3, r3
 1354 023e 1846     		mov	r0, r3
 1355 0240 FFF7FEFF 		bl	PWM_Motor_WriteCompare
 437:.\main.c      ****     previous_capture = (int) Timer_HE_ReadCapture();  // read initial capture count
 1356              		.loc 1 437 0
 1357 0244 FFF7FEFF 		bl	Timer_HE_ReadCapture
 1358 0248 0346     		mov	r3, r0
 1359 024a 1A46     		mov	r2, r3
 1360 024c 40F20003 		movw	r3, #:lower16:previous_capture
 1361 0250 C0F20003 		movt	r3, #:upper16:previous_capture
 1362 0254 1A60     		str	r2, [r3, #0]
 438:.\main.c      ****     
 439:.\main.c      ****     Control_Reg_Write(activate_0);
 1363              		.loc 1 439 0
 1364 0256 40F20003 		movw	r3, #:lower16:activate_0
 1365 025a C0F20003 		movt	r3, #:upper16:activate_0
 1366 025e 1B68     		ldr	r3, [r3, #0]
 1367 0260 DBB2     		uxtb	r3, r3
 1368 0262 1846     		mov	r0, r3
 1369 0264 FFF7FEFF 		bl	Control_Reg_Write
 1370              	.L46:
 440:.\main.c      ****     for(;;)
 441:.\main.c      ****     {   
 442:.\main.c      ****         while (n_fallingEdges[0] < time_slice) {
 1371              		.loc 1 442 0
 1372 0268 40F20003 		movw	r3, #:lower16:n_fallingEdges
 1373 026c C0F20003 		movt	r3, #:upper16:n_fallingEdges
 1374 0270 1A68     		ldr	r2, [r3, #0]
 1375 0272 40F20003 		movw	r3, #:lower16:time_slice
 1376 0276 C0F20003 		movt	r3, #:upper16:time_slice
 1377 027a 1B68     		ldr	r3, [r3, #0]
 1378 027c 9A42     		cmp	r2, r3
ARM GAS  C:\Users\dwguo\AppData\Local\Temp\ccX6G6Oe.s 			page 33


 1379 027e F3DB     		blt	.L46
 443:.\main.c      ****         }
 444:.\main.c      ****         sendWireless(0, dx[0], 0);
 1380              		.loc 1 444 0
 1381 0280 40F20003 		movw	r3, #:lower16:dx
 1382 0284 C0F20003 		movt	r3, #:upper16:dx
 1383 0288 1B68     		ldr	r3, [r3, #0]
 1384 028a 4FF00000 		mov	r0, #0
 1385 028e 1946     		mov	r1, r3
 1386 0290 4FF00002 		mov	r2, #0
 1387 0294 FFF7FEFF 		bl	sendWireless
 445:.\main.c      ****         sendWireless(0, dy[0], 1);
 1388              		.loc 1 445 0
 1389 0298 40F20003 		movw	r3, #:lower16:dy
 1390 029c C0F20003 		movt	r3, #:upper16:dy
 1391 02a0 1B68     		ldr	r3, [r3, #0]
 1392 02a2 4FF00000 		mov	r0, #0
 1393 02a6 1946     		mov	r1, r3
 1394 02a8 4FF00102 		mov	r2, #1
 1395 02ac FFF7FEFF 		bl	sendWireless
 446:.\main.c      ****         n_fallingEdges[0] = 0;
 1396              		.loc 1 446 0
 1397 02b0 40F20003 		movw	r3, #:lower16:n_fallingEdges
 1398 02b4 C0F20003 		movt	r3, #:upper16:n_fallingEdges
 1399 02b8 4FF00002 		mov	r2, #0
 1400 02bc 1A60     		str	r2, [r3, #0]
 447:.\main.c      ****  
 448:.\main.c      ****         /*
 449:.\main.c      ****         Control_Reg_Write(activate_0);
 450:.\main.c      ****         n_fallingEdges[0] = 0;
 451:.\main.c      ****         while (n_fallingEdges[0] < time_slice) {
 452:.\main.c      ****         }
 453:.\main.c      ****         sendWireless(0, dx[0], 0);
 454:.\main.c      ****         sendWireless(0, dy[0], 1);*/
 455:.\main.c      ****         
 456:.\main.c      ****         /*
 457:.\main.c      ****         Control_Reg_Write(activate_1);
 458:.\main.c      ****         n_fallingEdges[0] = 0;
 459:.\main.c      ****         while (n_fallingEdges[1] < time_slice) {
 460:.\main.c      ****         }
 461:.\main.c      ****         sendWireless(1, dx[1], 0);
 462:.\main.c      ****         sendWireless(1, dy[1], 1);
 463:.\main.c      ****         
 464:.\main.c      ****         Control_Reg_Write(activate_2);
 465:.\main.c      ****         n_fallingEdges[1] = 0;
 466:.\main.c      ****         while (n_fallingEdges[2] < time_slice) {
 467:.\main.c      ****         }
 468:.\main.c      ****         sendWireless(2, dx[2], 0);
 469:.\main.c      ****         sendWireless(2, dy[2], 1);*/
 470:.\main.c      ****         
 471:.\main.c      ****         //Timer_Infrared_1_ReadStatusRegister();
 472:.\main.c      ****         //Control_Reg_Write(activate_3);
 473:.\main.c      ****         //n_fallingEdges[2] = 0;
 474:.\main.c      ****         //while (n_fallingEdges[3] < time_slice) {
 475:.\main.c      ****         //}
 476:.\main.c      ****         //sendWireless(3, dx[3], 0);
 477:.\main.c      ****         //sendWireless(3, dy[3], 1);
ARM GAS  C:\Users\dwguo\AppData\Local\Temp\ccX6G6Oe.s 			page 34


 478:.\main.c      ****         
 479:.\main.c      ****         /*
 480:.\main.c      ****         for (i = 0; i < n_sensors-1; i++) {
 481:.\main.c      ****             if (dx[i] != 0) {
 482:.\main.c      ****                 sendWireless(i, dx[i], 0);
 483:.\main.c      ****                 dx[i] = 0;
 484:.\main.c      ****             }
 485:.\main.c      ****             if (dy[i] != 0) {
 486:.\main.c      ****                 sendWireless(i, dy[i], 1);
 487:.\main.c      ****                 dy[i] = 0;
 488:.\main.c      ****             }
 489:.\main.c      ****         }*/
 490:.\main.c      ****         
 491:.\main.c      ****         // 0
 492:.\main.c      ****         /*
 493:.\main.c      ****         int n_loop = 10;
 494:.\main.c      ****         for (i = 0; i < n_loop; i++) {
 495:.\main.c      ****             if (dx[0] != 0) {
 496:.\main.c      ****                 sendWireless(0, dx[0], 0);
 497:.\main.c      ****                 dx[0] = 0;
 498:.\main.c      ****                 break;
 499:.\main.c      ****             }
 500:.\main.c      ****         }
 501:.\main.c      ****         
 502:.\main.c      ****         for (i = 0; i < n_loop; i++) {
 503:.\main.c      ****             if (dy[0] != 0) {
 504:.\main.c      ****                 sendWireless(0, dy[0], 1);
 505:.\main.c      ****                 dx[0] = 0;
 506:.\main.c      ****                 break;
 507:.\main.c      ****             }
 508:.\main.c      ****         }
 509:.\main.c      ****         
 510:.\main.c      ****         // 1
 511:.\main.c      ****         for (i = 0; i < n_loop; i++) {
 512:.\main.c      ****             if (dx[1] != 0) {
 513:.\main.c      ****                 sendWireless(1, dx[1], 0);
 514:.\main.c      ****                 dx[1] = 0;
 515:.\main.c      ****                 break;
 516:.\main.c      ****             }
 517:.\main.c      ****         }
 518:.\main.c      ****         
 519:.\main.c      ****         for (i = 0; i < n_loop; i++) {
 520:.\main.c      ****             if (dy[1] != 0) {
 521:.\main.c      ****                 sendWireless(1, dy[1], 1);
 522:.\main.c      ****                 dy[1] = 0;
 523:.\main.c      ****                 break;
 524:.\main.c      ****             }
 525:.\main.c      ****         }
 526:.\main.c      ****         
 527:.\main.c      ****         // 2
 528:.\main.c      ****         for (i = 0; i < n_loop; i++) {
 529:.\main.c      ****             if (dx[2] != 0) {
 530:.\main.c      ****                 sendWireless(2, dx[2], 0);
 531:.\main.c      ****                 dx[2] = 0;
 532:.\main.c      ****                 break;
 533:.\main.c      ****             }
 534:.\main.c      ****         }
ARM GAS  C:\Users\dwguo\AppData\Local\Temp\ccX6G6Oe.s 			page 35


 535:.\main.c      ****         
 536:.\main.c      ****         for (i = 0; i < n_loop; i++) {
 537:.\main.c      ****             if (dy[2] != 0) {
 538:.\main.c      ****                 sendWireless(2, dy[2], 1);
 539:.\main.c      ****                 dy[2] = 0;
 540:.\main.c      ****                 break;
 541:.\main.c      ****             }
 542:.\main.c      ****         }*/
 543:.\main.c      ****         /*
 544:.\main.c      ****         for (i = 0; i < n_sensors; i++) {
 545:.\main.c      ****             updateSensorPos(i);
 546:.\main.c      ****         }
 547:.\main.c      ****         for (i = 0; i < n_sensors-1; i++) {
 548:.\main.c      ****             if (!updateSensorOpt(i)) {
 549:.\main.c      ****                 i--;
 550:.\main.c      ****             }
 551:.\main.c      ****             else {
 552:.\main.c      ****                 xUpdated = 0;
 553:.\main.c      ****                 yUpdated = 0;
 554:.\main.c      ****             }
 555:.\main.c      ****         }*/
 556:.\main.c      ****     }
 1401              		.loc 1 556 0
 1402 02be D3E7     		b	.L46
 1403              		.cfi_endproc
 1404              	.LFE41:
 1405              		.size	main, .-main
 1406              		.text
 1407              	.Letext0: