ARM GAS  C:\Users\dwguo\AppData\Local\Temp\ccR4paDK.s 			page 1


   1              		.syntax unified
   2              		.cpu cortex-m3
   3              		.fpu softvfp
   4              		.eabi_attribute 20, 1
   5              		.eabi_attribute 21, 1
   6              		.eabi_attribute 23, 3
   7              		.eabi_attribute 24, 1
   8              		.eabi_attribute 25, 1
   9              		.eabi_attribute 26, 1
  10              		.eabi_attribute 30, 6
  11              		.eabi_attribute 18, 4
  12              		.thumb
  13              		.file	"Timer_Nav.c"
  20 0000 7A010000 		.text
  20      02006200 
  20      00000201 
  20      FB0E0D00 
  20      01010101 
  21              	.Ltext0:
  22              		.cfi_sections	.debug_frame
  23              		.global	Timer_Nav_initVar
  24              		.bss
  25              		.type	Timer_Nav_initVar, %object
  26              		.size	Timer_Nav_initVar, 1
  27              	Timer_Nav_initVar:
  28 0000 00       		.space	1
  29              		.section	.text.Timer_Nav_Init,"ax",%progbits
  30              		.align	2
  31              		.global	Timer_Nav_Init
  32              		.thumb
  33              		.thumb_func
  34              		.type	Timer_Nav_Init, %function
  35              	Timer_Nav_Init:
  36              	.LFB0:
  37              		.file 1 ".\\Generated_Source\\PSoC5\\Timer_Nav.c"
   1:.\Generated_Source\PSoC5/Timer_Nav.c **** /*******************************************************************************
   2:.\Generated_Source\PSoC5/Timer_Nav.c **** * File Name: Timer_Nav.c
   3:.\Generated_Source\PSoC5/Timer_Nav.c **** * Version 2.30
   4:.\Generated_Source\PSoC5/Timer_Nav.c **** *
   5:.\Generated_Source\PSoC5/Timer_Nav.c **** * Description:
   6:.\Generated_Source\PSoC5/Timer_Nav.c **** *  The Timer component consists of a 8, 16, 24 or 32-bit timer with
   7:.\Generated_Source\PSoC5/Timer_Nav.c **** *  a selectable period between 2 and 2^Width - 1.  The timer may free run
   8:.\Generated_Source\PSoC5/Timer_Nav.c **** *  or be used as a capture timer as well.  The capture can be initiated
   9:.\Generated_Source\PSoC5/Timer_Nav.c **** *  by a positive or negative edge signal as well as via software.
  10:.\Generated_Source\PSoC5/Timer_Nav.c **** *  A trigger input can be programmed to enable the timer on rising edge
  11:.\Generated_Source\PSoC5/Timer_Nav.c **** *  falling edge, either edge or continous run.
  12:.\Generated_Source\PSoC5/Timer_Nav.c **** *  Interrupts may be generated due to a terminal count condition
  13:.\Generated_Source\PSoC5/Timer_Nav.c **** *  or a capture event.
  14:.\Generated_Source\PSoC5/Timer_Nav.c **** *
  15:.\Generated_Source\PSoC5/Timer_Nav.c **** * Note:
  16:.\Generated_Source\PSoC5/Timer_Nav.c **** *
ARM GAS  C:\Users\dwguo\AppData\Local\Temp\ccR4paDK.s 			page 2


  17:.\Generated_Source\PSoC5/Timer_Nav.c **** ********************************************************************************
  18:.\Generated_Source\PSoC5/Timer_Nav.c **** * Copyright 2008-2012, Cypress Semiconductor Corporation.  All rights reserved.
  19:.\Generated_Source\PSoC5/Timer_Nav.c **** * You may use this file only in accordance with the license, terms, conditions,
  20:.\Generated_Source\PSoC5/Timer_Nav.c **** * disclaimers, and limitations in the end user license agreement accompanying
  21:.\Generated_Source\PSoC5/Timer_Nav.c **** * the software package with which this file was provided.
  22:.\Generated_Source\PSoC5/Timer_Nav.c **** ********************************************************************************/
  23:.\Generated_Source\PSoC5/Timer_Nav.c **** 
  24:.\Generated_Source\PSoC5/Timer_Nav.c **** #include "Timer_Nav.h"
  25:.\Generated_Source\PSoC5/Timer_Nav.c **** 
  26:.\Generated_Source\PSoC5/Timer_Nav.c **** uint8 Timer_Nav_initVar = 0u;
  27:.\Generated_Source\PSoC5/Timer_Nav.c **** 
  28:.\Generated_Source\PSoC5/Timer_Nav.c **** 
  29:.\Generated_Source\PSoC5/Timer_Nav.c **** /*******************************************************************************
  30:.\Generated_Source\PSoC5/Timer_Nav.c **** * Function Name: Timer_Nav_Init
  31:.\Generated_Source\PSoC5/Timer_Nav.c **** ********************************************************************************
  32:.\Generated_Source\PSoC5/Timer_Nav.c **** *
  33:.\Generated_Source\PSoC5/Timer_Nav.c **** * Summary:
  34:.\Generated_Source\PSoC5/Timer_Nav.c **** *  Initialize to the schematic state
  35:.\Generated_Source\PSoC5/Timer_Nav.c **** *
  36:.\Generated_Source\PSoC5/Timer_Nav.c **** * Parameters:
  37:.\Generated_Source\PSoC5/Timer_Nav.c **** *  void
  38:.\Generated_Source\PSoC5/Timer_Nav.c **** *
  39:.\Generated_Source\PSoC5/Timer_Nav.c **** * Return:
  40:.\Generated_Source\PSoC5/Timer_Nav.c **** *  void
  41:.\Generated_Source\PSoC5/Timer_Nav.c **** *
  42:.\Generated_Source\PSoC5/Timer_Nav.c **** *******************************************************************************/
  43:.\Generated_Source\PSoC5/Timer_Nav.c **** void Timer_Nav_Init(void) 
  44:.\Generated_Source\PSoC5/Timer_Nav.c **** {
  38              		.loc 1 44 0
  39              		.cfi_startproc
  40              		@ args = 0, pretend = 0, frame = 0
  41              		@ frame_needed = 1, uses_anonymous_args = 0
  42 0000 80B5     		push	{r7, lr}
  43              	.LCFI0:
  44              		.cfi_def_cfa_offset 8
  45 0002 00AF     		add	r7, sp, #0
  46              		.cfi_offset 14, -4
  47              		.cfi_offset 7, -8
  48              	.LCFI1:
  49              		.cfi_def_cfa_register 7
  45:.\Generated_Source\PSoC5/Timer_Nav.c ****     #if(!Timer_Nav_UsingFixedFunction)
  46:.\Generated_Source\PSoC5/Timer_Nav.c ****             /* Interrupt State Backup for Critical Region*/
  47:.\Generated_Source\PSoC5/Timer_Nav.c ****             uint8 Timer_Nav_interruptState;
  48:.\Generated_Source\PSoC5/Timer_Nav.c ****     #endif /* Interrupt state back up for Fixed Function only */
  49:.\Generated_Source\PSoC5/Timer_Nav.c **** 
  50:.\Generated_Source\PSoC5/Timer_Nav.c ****     #if (Timer_Nav_UsingFixedFunction)
  51:.\Generated_Source\PSoC5/Timer_Nav.c ****         /* Clear all bits but the enable bit (if it's already set) for Timer operation */
  52:.\Generated_Source\PSoC5/Timer_Nav.c ****         Timer_Nav_CONTROL &= Timer_Nav_CTRL_ENABLE;
  50              		.loc 1 52 0
  51 0004 44F60C73 		movw	r3, #:lower16:1073762060
  52 0008 C4F20003 		movt	r3, #:upper16:1073762060
  53 000c 44F60C72 		movw	r2, #:lower16:1073762060
  54 0010 C4F20002 		movt	r2, #:upper16:1073762060
  55 0014 1278     		ldrb	r2, [r2, #0]
  56 0016 D2B2     		uxtb	r2, r2
  57 0018 02F00102 		and	r2, r2, #1
  58 001c 1A70     		strb	r2, [r3, #0]
ARM GAS  C:\Users\dwguo\AppData\Local\Temp\ccR4paDK.s 			page 3


  53:.\Generated_Source\PSoC5/Timer_Nav.c **** 
  54:.\Generated_Source\PSoC5/Timer_Nav.c ****         /* Clear the mode bits for continuous run mode */
  55:.\Generated_Source\PSoC5/Timer_Nav.c ****         #if (CY_PSOC5A)
  56:.\Generated_Source\PSoC5/Timer_Nav.c ****             Timer_Nav_CONTROL2 &= ~Timer_Nav_CTRL_MODE_MASK;
  57:.\Generated_Source\PSoC5/Timer_Nav.c ****         #endif /* Clear bits in CONTROL2 only in PSOC5A */
  58:.\Generated_Source\PSoC5/Timer_Nav.c **** 
  59:.\Generated_Source\PSoC5/Timer_Nav.c ****         #if (CY_PSOC3 || CY_PSOC5LP)
  60:.\Generated_Source\PSoC5/Timer_Nav.c ****             Timer_Nav_CONTROL3 &= ~Timer_Nav_CTRL_MODE_MASK;
  59              		.loc 1 60 0
  60 001e 44F60E73 		movw	r3, #:lower16:1073762062
  61 0022 C4F20003 		movt	r3, #:upper16:1073762062
  62 0026 44F60E72 		movw	r2, #:lower16:1073762062
  63 002a C4F20002 		movt	r2, #:upper16:1073762062
  64 002e 1278     		ldrb	r2, [r2, #0]
  65 0030 D2B2     		uxtb	r2, r2
  66 0032 02F0FC02 		and	r2, r2, #252
  67 0036 1A70     		strb	r2, [r3, #0]
  61:.\Generated_Source\PSoC5/Timer_Nav.c ****         #endif /* CONTROL3 register exists only in PSoC3 OR PSoC5LP */
  62:.\Generated_Source\PSoC5/Timer_Nav.c **** 
  63:.\Generated_Source\PSoC5/Timer_Nav.c ****         /* Check if One Shot mode is enabled i.e. RunMode !=0*/
  64:.\Generated_Source\PSoC5/Timer_Nav.c ****         #if (Timer_Nav_RunModeUsed != 0x0u)
  65:.\Generated_Source\PSoC5/Timer_Nav.c ****             /* Set 3rd bit of Control register to enable one shot mode */
  66:.\Generated_Source\PSoC5/Timer_Nav.c ****             Timer_Nav_CONTROL |= 0x04u;
  67:.\Generated_Source\PSoC5/Timer_Nav.c ****         #endif /* One Shot enabled only when RunModeUsed is not Continuous*/
  68:.\Generated_Source\PSoC5/Timer_Nav.c **** 
  69:.\Generated_Source\PSoC5/Timer_Nav.c ****         #if (Timer_Nav_RunModeUsed == 2)
  70:.\Generated_Source\PSoC5/Timer_Nav.c ****             #if (CY_PSOC5A)
  71:.\Generated_Source\PSoC5/Timer_Nav.c ****                 /* Set last 2 bits of control2 register if one shot(halt on
  72:.\Generated_Source\PSoC5/Timer_Nav.c ****                 interrupt) is enabled*/
  73:.\Generated_Source\PSoC5/Timer_Nav.c ****                 Timer_Nav_CONTROL2 |= 0x03u;
  74:.\Generated_Source\PSoC5/Timer_Nav.c ****             #endif /* Set One-Shot Halt on Interrupt bit in CONTROL2 for PSoC5A */
  75:.\Generated_Source\PSoC5/Timer_Nav.c **** 
  76:.\Generated_Source\PSoC5/Timer_Nav.c ****             #if (CY_PSOC3 || CY_PSOC5LP)
  77:.\Generated_Source\PSoC5/Timer_Nav.c ****                 /* Set last 2 bits of control3 register if one shot(halt on
  78:.\Generated_Source\PSoC5/Timer_Nav.c ****                 interrupt) is enabled*/
  79:.\Generated_Source\PSoC5/Timer_Nav.c ****                 Timer_Nav_CONTROL3 |= 0x03u;
  80:.\Generated_Source\PSoC5/Timer_Nav.c ****             #endif /* Set One-Shot Halt on Interrupt bit in CONTROL3 for PSoC3 or PSoC5LP */
  81:.\Generated_Source\PSoC5/Timer_Nav.c **** 
  82:.\Generated_Source\PSoC5/Timer_Nav.c ****         #endif /* Remove section if One Shot Halt on Interrupt is not enabled */
  83:.\Generated_Source\PSoC5/Timer_Nav.c **** 
  84:.\Generated_Source\PSoC5/Timer_Nav.c ****         #if (Timer_Nav_UsingHWEnable != 0)
  85:.\Generated_Source\PSoC5/Timer_Nav.c ****             #if (CY_PSOC5A)
  86:.\Generated_Source\PSoC5/Timer_Nav.c ****                 /* Set the default Run Mode of the Timer to Continuous */
  87:.\Generated_Source\PSoC5/Timer_Nav.c ****                 Timer_Nav_CONTROL2 |= Timer_Nav_CTRL_MODE_PULSEWIDTH;
  88:.\Generated_Source\PSoC5/Timer_Nav.c ****             #endif /* Set Continuous Run Mode in CONTROL2 for PSoC5A */
  89:.\Generated_Source\PSoC5/Timer_Nav.c **** 
  90:.\Generated_Source\PSoC5/Timer_Nav.c ****             #if (CY_PSOC3 || CY_PSOC5LP)
  91:.\Generated_Source\PSoC5/Timer_Nav.c ****                 /* Clear and Set ROD and COD bits of CFG2 register */
  92:.\Generated_Source\PSoC5/Timer_Nav.c ****                 Timer_Nav_CONTROL3 &= ~Timer_Nav_CTRL_RCOD_MASK;
  93:.\Generated_Source\PSoC5/Timer_Nav.c ****                 Timer_Nav_CONTROL3 |= Timer_Nav_CTRL_RCOD;
  94:.\Generated_Source\PSoC5/Timer_Nav.c **** 
  95:.\Generated_Source\PSoC5/Timer_Nav.c ****                 /* Clear and Enable the HW enable bit in CFG2 register */
  96:.\Generated_Source\PSoC5/Timer_Nav.c ****                 Timer_Nav_CONTROL3 &= ~Timer_Nav_CTRL_ENBL_MASK;
  97:.\Generated_Source\PSoC5/Timer_Nav.c ****                 Timer_Nav_CONTROL3 |= Timer_Nav_CTRL_ENBL;
  98:.\Generated_Source\PSoC5/Timer_Nav.c **** 
  99:.\Generated_Source\PSoC5/Timer_Nav.c ****                 /* Set the default Run Mode of the Timer to Continuous */
 100:.\Generated_Source\PSoC5/Timer_Nav.c ****                 Timer_Nav_CONTROL3 |= Timer_Nav_CTRL_MODE_CONTINUOUS;
ARM GAS  C:\Users\dwguo\AppData\Local\Temp\ccR4paDK.s 			page 4


 101:.\Generated_Source\PSoC5/Timer_Nav.c ****             #endif /* Set Continuous Run Mode in CONTROL3 for PSoC3ES3 or PSoC5A */
 102:.\Generated_Source\PSoC5/Timer_Nav.c **** 
 103:.\Generated_Source\PSoC5/Timer_Nav.c ****         #endif /* Configure Run Mode with hardware enable */
 104:.\Generated_Source\PSoC5/Timer_Nav.c **** 
 105:.\Generated_Source\PSoC5/Timer_Nav.c ****         /* Clear and Set SYNCTC and SYNCCMP bits of RT1 register */
 106:.\Generated_Source\PSoC5/Timer_Nav.c ****         Timer_Nav_RT1 &= ~Timer_Nav_RT1_MASK;
  68              		.loc 1 106 0
  69 0038 44F61773 		movw	r3, #:lower16:1073762071
  70 003c C4F20003 		movt	r3, #:upper16:1073762071
  71 0040 44F61772 		movw	r2, #:lower16:1073762071
  72 0044 C4F20002 		movt	r2, #:upper16:1073762071
  73 0048 1278     		ldrb	r2, [r2, #0]
  74 004a D2B2     		uxtb	r2, r2
  75 004c 02F0CF02 		and	r2, r2, #207
  76 0050 1A70     		strb	r2, [r3, #0]
 107:.\Generated_Source\PSoC5/Timer_Nav.c ****         Timer_Nav_RT1 |= Timer_Nav_SYNC;
  77              		.loc 1 107 0
  78 0052 44F61773 		movw	r3, #:lower16:1073762071
  79 0056 C4F20003 		movt	r3, #:upper16:1073762071
  80 005a 44F61772 		movw	r2, #:lower16:1073762071
  81 005e C4F20002 		movt	r2, #:upper16:1073762071
  82 0062 1278     		ldrb	r2, [r2, #0]
  83 0064 D2B2     		uxtb	r2, r2
  84 0066 42F03002 		orr	r2, r2, #48
  85 006a D2B2     		uxtb	r2, r2
  86 006c 1A70     		strb	r2, [r3, #0]
 108:.\Generated_Source\PSoC5/Timer_Nav.c **** 
 109:.\Generated_Source\PSoC5/Timer_Nav.c ****         /*Enable DSI Sync all all inputs of the Timer*/
 110:.\Generated_Source\PSoC5/Timer_Nav.c ****         Timer_Nav_RT1 &= ~(Timer_Nav_SYNCDSI_MASK);
  87              		.loc 1 110 0
  88 006e 44F61773 		movw	r3, #:lower16:1073762071
  89 0072 C4F20003 		movt	r3, #:upper16:1073762071
  90 0076 44F61772 		movw	r2, #:lower16:1073762071
  91 007a C4F20002 		movt	r2, #:upper16:1073762071
  92 007e 1278     		ldrb	r2, [r2, #0]
  93 0080 D2B2     		uxtb	r2, r2
  94 0082 02F0F002 		and	r2, r2, #240
  95 0086 1A70     		strb	r2, [r3, #0]
 111:.\Generated_Source\PSoC5/Timer_Nav.c ****         Timer_Nav_RT1 |= Timer_Nav_SYNCDSI_EN;
  96              		.loc 1 111 0
  97 0088 44F61773 		movw	r3, #:lower16:1073762071
  98 008c C4F20003 		movt	r3, #:upper16:1073762071
  99 0090 44F61772 		movw	r2, #:lower16:1073762071
 100 0094 C4F20002 		movt	r2, #:upper16:1073762071
 101 0098 1278     		ldrb	r2, [r2, #0]
 102 009a D2B2     		uxtb	r2, r2
 103 009c 42F00F02 		orr	r2, r2, #15
 104 00a0 D2B2     		uxtb	r2, r2
 105 00a2 1A70     		strb	r2, [r3, #0]
 112:.\Generated_Source\PSoC5/Timer_Nav.c **** 
 113:.\Generated_Source\PSoC5/Timer_Nav.c ****         /* Set the IRQ to use the status register interrupts */
 114:.\Generated_Source\PSoC5/Timer_Nav.c ****         Timer_Nav_CONTROL2 |= Timer_Nav_CTRL2_IRQ_SEL;
 106              		.loc 1 114 0
 107 00a4 44F60D73 		movw	r3, #:lower16:1073762061
 108 00a8 C4F20003 		movt	r3, #:upper16:1073762061
 109 00ac 44F60D72 		movw	r2, #:lower16:1073762061
 110 00b0 C4F20002 		movt	r2, #:upper16:1073762061
ARM GAS  C:\Users\dwguo\AppData\Local\Temp\ccR4paDK.s 			page 5


 111 00b4 1278     		ldrb	r2, [r2, #0]
 112 00b6 D2B2     		uxtb	r2, r2
 113 00b8 42F00102 		orr	r2, r2, #1
 114 00bc D2B2     		uxtb	r2, r2
 115 00be 1A70     		strb	r2, [r3, #0]
 115:.\Generated_Source\PSoC5/Timer_Nav.c ****     #endif /* Configuring registers of fixed function implementation */
 116:.\Generated_Source\PSoC5/Timer_Nav.c **** 
 117:.\Generated_Source\PSoC5/Timer_Nav.c ****     /* Set Initial values from Configuration */
 118:.\Generated_Source\PSoC5/Timer_Nav.c ****     Timer_Nav_WritePeriod(Timer_Nav_INIT_PERIOD);
 116              		.loc 1 118 0
 117 00c0 4FF6FF70 		movw	r0, #65535
 118 00c4 FFF7FEFF 		bl	Timer_Nav_WritePeriod
 119:.\Generated_Source\PSoC5/Timer_Nav.c ****     Timer_Nav_WriteCounter(Timer_Nav_INIT_PERIOD);
 119              		.loc 1 119 0
 120 00c8 4FF6FF70 		movw	r0, #65535
 121 00cc FFF7FEFF 		bl	Timer_Nav_WriteCounter
 120:.\Generated_Source\PSoC5/Timer_Nav.c **** 
 121:.\Generated_Source\PSoC5/Timer_Nav.c ****     #if (Timer_Nav_UsingHWCaptureCounter)/* Capture counter is enabled */
 122:.\Generated_Source\PSoC5/Timer_Nav.c ****         Timer_Nav_CAPTURE_COUNT_CTRL |= Timer_Nav_CNTR_ENABLE;
 123:.\Generated_Source\PSoC5/Timer_Nav.c ****         Timer_Nav_SetCaptureCount(Timer_Nav_INIT_CAPTURE_COUNT);
 124:.\Generated_Source\PSoC5/Timer_Nav.c ****     #endif /* Configure capture counter value */
 125:.\Generated_Source\PSoC5/Timer_Nav.c **** 
 126:.\Generated_Source\PSoC5/Timer_Nav.c ****     #if (!Timer_Nav_UsingFixedFunction)
 127:.\Generated_Source\PSoC5/Timer_Nav.c ****         #if (Timer_Nav_SoftwareCaptureMode)
 128:.\Generated_Source\PSoC5/Timer_Nav.c ****             Timer_Nav_SetCaptureMode(Timer_Nav_INIT_CAPTURE_MODE);
 129:.\Generated_Source\PSoC5/Timer_Nav.c ****         #endif /* Set Capture Mode for UDB implementation if capture mode is software controlled */
 130:.\Generated_Source\PSoC5/Timer_Nav.c **** 
 131:.\Generated_Source\PSoC5/Timer_Nav.c ****         #if (Timer_Nav_SoftwareTriggerMode)
 132:.\Generated_Source\PSoC5/Timer_Nav.c ****             if (!(Timer_Nav_CONTROL & Timer_Nav__B_TIMER__TM_SOFTWARE))
 133:.\Generated_Source\PSoC5/Timer_Nav.c ****             {
 134:.\Generated_Source\PSoC5/Timer_Nav.c ****                 Timer_Nav_SetTriggerMode(Timer_Nav_INIT_TRIGGER_MODE);
 135:.\Generated_Source\PSoC5/Timer_Nav.c ****             }
 136:.\Generated_Source\PSoC5/Timer_Nav.c ****         #endif /* Set trigger mode for UDB Implementation if trigger mode is software controlled */
 137:.\Generated_Source\PSoC5/Timer_Nav.c **** 
 138:.\Generated_Source\PSoC5/Timer_Nav.c ****         /* CyEnterCriticalRegion and CyExitCriticalRegion are used to mark following region critica
 139:.\Generated_Source\PSoC5/Timer_Nav.c ****         /* Enter Critical Region*/
 140:.\Generated_Source\PSoC5/Timer_Nav.c ****         Timer_Nav_interruptState = CyEnterCriticalSection();
 141:.\Generated_Source\PSoC5/Timer_Nav.c **** 
 142:.\Generated_Source\PSoC5/Timer_Nav.c ****         /* Use the interrupt output of the status register for IRQ output */
 143:.\Generated_Source\PSoC5/Timer_Nav.c ****         Timer_Nav_STATUS_AUX_CTRL |= Timer_Nav_STATUS_ACTL_INT_EN_MASK;
 144:.\Generated_Source\PSoC5/Timer_Nav.c **** 
 145:.\Generated_Source\PSoC5/Timer_Nav.c ****         /* Exit Critical Region*/
 146:.\Generated_Source\PSoC5/Timer_Nav.c ****         CyExitCriticalSection(Timer_Nav_interruptState);
 147:.\Generated_Source\PSoC5/Timer_Nav.c **** 
 148:.\Generated_Source\PSoC5/Timer_Nav.c ****         #if (Timer_Nav_EnableTriggerMode)
 149:.\Generated_Source\PSoC5/Timer_Nav.c ****             Timer_Nav_EnableTrigger();
 150:.\Generated_Source\PSoC5/Timer_Nav.c ****         #endif /* Set Trigger enable bit for UDB implementation in the control register*/
 151:.\Generated_Source\PSoC5/Timer_Nav.c **** 
 152:.\Generated_Source\PSoC5/Timer_Nav.c ****         #if (Timer_Nav_InterruptOnCaptureCount)
 153:.\Generated_Source\PSoC5/Timer_Nav.c ****              #if (!Timer_Nav_ControlRegRemoved)
 154:.\Generated_Source\PSoC5/Timer_Nav.c ****                 Timer_Nav_SetInterruptCount(Timer_Nav_INIT_INT_CAPTURE_COUNT);
 155:.\Generated_Source\PSoC5/Timer_Nav.c ****             #endif /* Set interrupt count in control register if control register is not removed */
 156:.\Generated_Source\PSoC5/Timer_Nav.c ****         #endif /*Set interrupt count in UDB implementation if interrupt count feature is checked.*/
 157:.\Generated_Source\PSoC5/Timer_Nav.c **** 
 158:.\Generated_Source\PSoC5/Timer_Nav.c ****         Timer_Nav_ClearFIFO();
 159:.\Generated_Source\PSoC5/Timer_Nav.c ****     #endif /* Configure additional features of UDB implementation */
 160:.\Generated_Source\PSoC5/Timer_Nav.c **** 
ARM GAS  C:\Users\dwguo\AppData\Local\Temp\ccR4paDK.s 			page 6


 161:.\Generated_Source\PSoC5/Timer_Nav.c ****     Timer_Nav_SetInterruptMode(Timer_Nav_INIT_INTERRUPT_MODE);
 122              		.loc 1 161 0
 123 00d0 4FF00400 		mov	r0, #4
 124 00d4 FFF7FEFF 		bl	Timer_Nav_SetInterruptMode
 162:.\Generated_Source\PSoC5/Timer_Nav.c **** }
 125              		.loc 1 162 0
 126 00d8 80BD     		pop	{r7, pc}
 127              		.cfi_endproc
 128              	.LFE0:
 129              		.size	Timer_Nav_Init, .-Timer_Nav_Init
 130 00da 00BF     		.section	.text.Timer_Nav_Enable,"ax",%progbits
 131              		.align	2
 132              		.global	Timer_Nav_Enable
 133              		.thumb
 134              		.thumb_func
 135              		.type	Timer_Nav_Enable, %function
 136              	Timer_Nav_Enable:
 137              	.LFB1:
 163:.\Generated_Source\PSoC5/Timer_Nav.c **** 
 164:.\Generated_Source\PSoC5/Timer_Nav.c **** 
 165:.\Generated_Source\PSoC5/Timer_Nav.c **** /*******************************************************************************
 166:.\Generated_Source\PSoC5/Timer_Nav.c **** * Function Name: Timer_Nav_Enable
 167:.\Generated_Source\PSoC5/Timer_Nav.c **** ********************************************************************************
 168:.\Generated_Source\PSoC5/Timer_Nav.c **** *
 169:.\Generated_Source\PSoC5/Timer_Nav.c **** * Summary:
 170:.\Generated_Source\PSoC5/Timer_Nav.c **** *  Enable the Timer
 171:.\Generated_Source\PSoC5/Timer_Nav.c **** *
 172:.\Generated_Source\PSoC5/Timer_Nav.c **** * Parameters:
 173:.\Generated_Source\PSoC5/Timer_Nav.c **** *  void
 174:.\Generated_Source\PSoC5/Timer_Nav.c **** *
 175:.\Generated_Source\PSoC5/Timer_Nav.c **** * Return:
 176:.\Generated_Source\PSoC5/Timer_Nav.c **** *  void
 177:.\Generated_Source\PSoC5/Timer_Nav.c **** *
 178:.\Generated_Source\PSoC5/Timer_Nav.c **** *******************************************************************************/
 179:.\Generated_Source\PSoC5/Timer_Nav.c **** void Timer_Nav_Enable(void) 
 180:.\Generated_Source\PSoC5/Timer_Nav.c **** {
 138              		.loc 1 180 0
 139              		.cfi_startproc
 140              		@ args = 0, pretend = 0, frame = 0
 141              		@ frame_needed = 1, uses_anonymous_args = 0
 142              		@ link register save eliminated.
 143 0000 80B4     		push	{r7}
 144              	.LCFI2:
 145              		.cfi_def_cfa_offset 4
 146 0002 00AF     		add	r7, sp, #0
 147              		.cfi_offset 7, -4
 148              	.LCFI3:
 149              		.cfi_def_cfa_register 7
 181:.\Generated_Source\PSoC5/Timer_Nav.c ****     /* Globally Enable the Fixed Function Block chosen */
 182:.\Generated_Source\PSoC5/Timer_Nav.c ****     #if (Timer_Nav_UsingFixedFunction)
 183:.\Generated_Source\PSoC5/Timer_Nav.c ****         Timer_Nav_GLOBAL_ENABLE |= Timer_Nav_BLOCK_EN_MASK;
 150              		.loc 1 183 0
 151 0004 44F2A333 		movw	r3, #:lower16:1073759139
 152 0008 C4F20003 		movt	r3, #:upper16:1073759139
 153 000c 44F2A332 		movw	r2, #:lower16:1073759139
 154 0010 C4F20002 		movt	r2, #:upper16:1073759139
 155 0014 1278     		ldrb	r2, [r2, #0]
ARM GAS  C:\Users\dwguo\AppData\Local\Temp\ccR4paDK.s 			page 7


 156 0016 D2B2     		uxtb	r2, r2
 157 0018 42F00202 		orr	r2, r2, #2
 158 001c D2B2     		uxtb	r2, r2
 159 001e 1A70     		strb	r2, [r3, #0]
 184:.\Generated_Source\PSoC5/Timer_Nav.c ****         Timer_Nav_GLOBAL_STBY_ENABLE |= Timer_Nav_BLOCK_STBY_EN_MASK;
 160              		.loc 1 184 0
 161 0020 44F2B333 		movw	r3, #:lower16:1073759155
 162 0024 C4F20003 		movt	r3, #:upper16:1073759155
 163 0028 44F2B332 		movw	r2, #:lower16:1073759155
 164 002c C4F20002 		movt	r2, #:upper16:1073759155
 165 0030 1278     		ldrb	r2, [r2, #0]
 166 0032 D2B2     		uxtb	r2, r2
 167 0034 42F00202 		orr	r2, r2, #2
 168 0038 D2B2     		uxtb	r2, r2
 169 003a 1A70     		strb	r2, [r3, #0]
 185:.\Generated_Source\PSoC5/Timer_Nav.c ****     #endif /* Set Enable bit for enabling Fixed function timer*/
 186:.\Generated_Source\PSoC5/Timer_Nav.c **** 
 187:.\Generated_Source\PSoC5/Timer_Nav.c ****     /* Remove assignment if control register is removed */
 188:.\Generated_Source\PSoC5/Timer_Nav.c ****     #if (!Timer_Nav_ControlRegRemoved || Timer_Nav_UsingFixedFunction)
 189:.\Generated_Source\PSoC5/Timer_Nav.c ****         Timer_Nav_CONTROL |= Timer_Nav_CTRL_ENABLE;
 170              		.loc 1 189 0
 171 003c 44F60C73 		movw	r3, #:lower16:1073762060
 172 0040 C4F20003 		movt	r3, #:upper16:1073762060
 173 0044 44F60C72 		movw	r2, #:lower16:1073762060
 174 0048 C4F20002 		movt	r2, #:upper16:1073762060
 175 004c 1278     		ldrb	r2, [r2, #0]
 176 004e D2B2     		uxtb	r2, r2
 177 0050 42F00102 		orr	r2, r2, #1
 178 0054 D2B2     		uxtb	r2, r2
 179 0056 1A70     		strb	r2, [r3, #0]
 190:.\Generated_Source\PSoC5/Timer_Nav.c ****     #endif /* Remove assignment if control register is removed */
 191:.\Generated_Source\PSoC5/Timer_Nav.c **** }
 180              		.loc 1 191 0
 181 0058 BD46     		mov	sp, r7
 182 005a 80BC     		pop	{r7}
 183 005c 7047     		bx	lr
 184              		.cfi_endproc
 185              	.LFE1:
 186              		.size	Timer_Nav_Enable, .-Timer_Nav_Enable
 187 005e 00BF     		.section	.text.Timer_Nav_Start,"ax",%progbits
 188              		.align	2
 189              		.global	Timer_Nav_Start
 190              		.thumb
 191              		.thumb_func
 192              		.type	Timer_Nav_Start, %function
 193              	Timer_Nav_Start:
 194              	.LFB2:
 192:.\Generated_Source\PSoC5/Timer_Nav.c **** 
 193:.\Generated_Source\PSoC5/Timer_Nav.c **** 
 194:.\Generated_Source\PSoC5/Timer_Nav.c **** /*******************************************************************************
 195:.\Generated_Source\PSoC5/Timer_Nav.c **** * Function Name: Timer_Nav_Start
 196:.\Generated_Source\PSoC5/Timer_Nav.c **** ********************************************************************************
 197:.\Generated_Source\PSoC5/Timer_Nav.c **** *
 198:.\Generated_Source\PSoC5/Timer_Nav.c **** * Summary:
 199:.\Generated_Source\PSoC5/Timer_Nav.c **** *  The start function initializes the timer with the default values, the
 200:.\Generated_Source\PSoC5/Timer_Nav.c **** *  enables the timerto begin counting.  It does not enable interrupts,
 201:.\Generated_Source\PSoC5/Timer_Nav.c **** *  the EnableInt command should be called if interrupt generation is required.
ARM GAS  C:\Users\dwguo\AppData\Local\Temp\ccR4paDK.s 			page 8


 202:.\Generated_Source\PSoC5/Timer_Nav.c **** *
 203:.\Generated_Source\PSoC5/Timer_Nav.c **** * Parameters:
 204:.\Generated_Source\PSoC5/Timer_Nav.c **** *  void
 205:.\Generated_Source\PSoC5/Timer_Nav.c **** *
 206:.\Generated_Source\PSoC5/Timer_Nav.c **** * Return:
 207:.\Generated_Source\PSoC5/Timer_Nav.c **** *  void
 208:.\Generated_Source\PSoC5/Timer_Nav.c **** *
 209:.\Generated_Source\PSoC5/Timer_Nav.c **** * Global variables:
 210:.\Generated_Source\PSoC5/Timer_Nav.c **** *  Timer_Nav_initVar: Is modified when this function is called for the
 211:.\Generated_Source\PSoC5/Timer_Nav.c **** *   first time. Is used to ensure that initialization happens only once.
 212:.\Generated_Source\PSoC5/Timer_Nav.c **** *
 213:.\Generated_Source\PSoC5/Timer_Nav.c **** *******************************************************************************/
 214:.\Generated_Source\PSoC5/Timer_Nav.c **** void Timer_Nav_Start(void) 
 215:.\Generated_Source\PSoC5/Timer_Nav.c **** {
 195              		.loc 1 215 0
 196              		.cfi_startproc
 197              		@ args = 0, pretend = 0, frame = 0
 198              		@ frame_needed = 1, uses_anonymous_args = 0
 199 0000 80B5     		push	{r7, lr}
 200              	.LCFI4:
 201              		.cfi_def_cfa_offset 8
 202 0002 00AF     		add	r7, sp, #0
 203              		.cfi_offset 14, -4
 204              		.cfi_offset 7, -8
 205              	.LCFI5:
 206              		.cfi_def_cfa_register 7
 216:.\Generated_Source\PSoC5/Timer_Nav.c ****     if(Timer_Nav_initVar == 0u)
 207              		.loc 1 216 0
 208 0004 40F20003 		movw	r3, #:lower16:Timer_Nav_initVar
 209 0008 C0F20003 		movt	r3, #:upper16:Timer_Nav_initVar
 210 000c 1B78     		ldrb	r3, [r3, #0]	@ zero_extendqisi2
 211 000e 002B     		cmp	r3, #0
 212 0010 08D1     		bne	.L6
 217:.\Generated_Source\PSoC5/Timer_Nav.c ****     {
 218:.\Generated_Source\PSoC5/Timer_Nav.c ****         Timer_Nav_Init();
 213              		.loc 1 218 0
 214 0012 FFF7FEFF 		bl	Timer_Nav_Init
 219:.\Generated_Source\PSoC5/Timer_Nav.c **** 
 220:.\Generated_Source\PSoC5/Timer_Nav.c ****         Timer_Nav_initVar = 1u;   /* Clear this bit for Initialization */
 215              		.loc 1 220 0
 216 0016 40F20003 		movw	r3, #:lower16:Timer_Nav_initVar
 217 001a C0F20003 		movt	r3, #:upper16:Timer_Nav_initVar
 218 001e 4FF00102 		mov	r2, #1
 219 0022 1A70     		strb	r2, [r3, #0]
 220              	.L6:
 221:.\Generated_Source\PSoC5/Timer_Nav.c ****     }
 222:.\Generated_Source\PSoC5/Timer_Nav.c **** 
 223:.\Generated_Source\PSoC5/Timer_Nav.c ****     /* Enable the Timer */
 224:.\Generated_Source\PSoC5/Timer_Nav.c ****     Timer_Nav_Enable();
 221              		.loc 1 224 0
 222 0024 FFF7FEFF 		bl	Timer_Nav_Enable
 225:.\Generated_Source\PSoC5/Timer_Nav.c **** }
 223              		.loc 1 225 0
 224 0028 80BD     		pop	{r7, pc}
 225              		.cfi_endproc
 226              	.LFE2:
 227              		.size	Timer_Nav_Start, .-Timer_Nav_Start
ARM GAS  C:\Users\dwguo\AppData\Local\Temp\ccR4paDK.s 			page 9


 228 002a 00BF     		.section	.text.Timer_Nav_Stop,"ax",%progbits
 229              		.align	2
 230              		.global	Timer_Nav_Stop
 231              		.thumb
 232              		.thumb_func
 233              		.type	Timer_Nav_Stop, %function
 234              	Timer_Nav_Stop:
 235              	.LFB3:
 226:.\Generated_Source\PSoC5/Timer_Nav.c **** 
 227:.\Generated_Source\PSoC5/Timer_Nav.c **** 
 228:.\Generated_Source\PSoC5/Timer_Nav.c **** /*******************************************************************************
 229:.\Generated_Source\PSoC5/Timer_Nav.c **** * Function Name: Timer_Nav_Stop
 230:.\Generated_Source\PSoC5/Timer_Nav.c **** ********************************************************************************
 231:.\Generated_Source\PSoC5/Timer_Nav.c **** *
 232:.\Generated_Source\PSoC5/Timer_Nav.c **** * Summary:
 233:.\Generated_Source\PSoC5/Timer_Nav.c **** *  The stop function halts the timer, but does not change any modes or disable
 234:.\Generated_Source\PSoC5/Timer_Nav.c **** *  interrupts.
 235:.\Generated_Source\PSoC5/Timer_Nav.c **** *
 236:.\Generated_Source\PSoC5/Timer_Nav.c **** * Parameters:
 237:.\Generated_Source\PSoC5/Timer_Nav.c **** *  void
 238:.\Generated_Source\PSoC5/Timer_Nav.c **** *
 239:.\Generated_Source\PSoC5/Timer_Nav.c **** * Return:
 240:.\Generated_Source\PSoC5/Timer_Nav.c **** *  void
 241:.\Generated_Source\PSoC5/Timer_Nav.c **** *
 242:.\Generated_Source\PSoC5/Timer_Nav.c **** * Side Effects: If the Enable mode is set to Hardware only then this function
 243:.\Generated_Source\PSoC5/Timer_Nav.c **** *               has no effect on the operation of the timer.
 244:.\Generated_Source\PSoC5/Timer_Nav.c **** *
 245:.\Generated_Source\PSoC5/Timer_Nav.c **** *******************************************************************************/
 246:.\Generated_Source\PSoC5/Timer_Nav.c **** void Timer_Nav_Stop(void) 
 247:.\Generated_Source\PSoC5/Timer_Nav.c **** {
 236              		.loc 1 247 0
 237              		.cfi_startproc
 238              		@ args = 0, pretend = 0, frame = 0
 239              		@ frame_needed = 1, uses_anonymous_args = 0
 240              		@ link register save eliminated.
 241 0000 80B4     		push	{r7}
 242              	.LCFI6:
 243              		.cfi_def_cfa_offset 4
 244 0002 00AF     		add	r7, sp, #0
 245              		.cfi_offset 7, -4
 246              	.LCFI7:
 247              		.cfi_def_cfa_register 7
 248:.\Generated_Source\PSoC5/Timer_Nav.c ****     /* Disable Timer */
 249:.\Generated_Source\PSoC5/Timer_Nav.c ****     #if(!Timer_Nav_ControlRegRemoved || Timer_Nav_UsingFixedFunction)
 250:.\Generated_Source\PSoC5/Timer_Nav.c ****         Timer_Nav_CONTROL &= ~Timer_Nav_CTRL_ENABLE;
 248              		.loc 1 250 0
 249 0004 44F60C73 		movw	r3, #:lower16:1073762060
 250 0008 C4F20003 		movt	r3, #:upper16:1073762060
 251 000c 44F60C72 		movw	r2, #:lower16:1073762060
 252 0010 C4F20002 		movt	r2, #:upper16:1073762060
 253 0014 1278     		ldrb	r2, [r2, #0]
 254 0016 D2B2     		uxtb	r2, r2
 255 0018 02F0FE02 		and	r2, r2, #254
 256 001c 1A70     		strb	r2, [r3, #0]
 251:.\Generated_Source\PSoC5/Timer_Nav.c ****     #endif /* Remove assignment if control register is removed */
 252:.\Generated_Source\PSoC5/Timer_Nav.c **** 
 253:.\Generated_Source\PSoC5/Timer_Nav.c ****     /* Globally disable the Fixed Function Block chosen */
ARM GAS  C:\Users\dwguo\AppData\Local\Temp\ccR4paDK.s 			page 10


 254:.\Generated_Source\PSoC5/Timer_Nav.c ****     #if (Timer_Nav_UsingFixedFunction)
 255:.\Generated_Source\PSoC5/Timer_Nav.c ****         Timer_Nav_GLOBAL_ENABLE &= ~Timer_Nav_BLOCK_EN_MASK;
 257              		.loc 1 255 0
 258 001e 44F2A333 		movw	r3, #:lower16:1073759139
 259 0022 C4F20003 		movt	r3, #:upper16:1073759139
 260 0026 44F2A332 		movw	r2, #:lower16:1073759139
 261 002a C4F20002 		movt	r2, #:upper16:1073759139
 262 002e 1278     		ldrb	r2, [r2, #0]
 263 0030 D2B2     		uxtb	r2, r2
 264 0032 02F0FD02 		and	r2, r2, #253
 265 0036 1A70     		strb	r2, [r3, #0]
 256:.\Generated_Source\PSoC5/Timer_Nav.c ****         Timer_Nav_GLOBAL_STBY_ENABLE &= ~Timer_Nav_BLOCK_STBY_EN_MASK;
 266              		.loc 1 256 0
 267 0038 44F2B333 		movw	r3, #:lower16:1073759155
 268 003c C4F20003 		movt	r3, #:upper16:1073759155
 269 0040 44F2B332 		movw	r2, #:lower16:1073759155
 270 0044 C4F20002 		movt	r2, #:upper16:1073759155
 271 0048 1278     		ldrb	r2, [r2, #0]
 272 004a D2B2     		uxtb	r2, r2
 273 004c 02F0FD02 		and	r2, r2, #253
 274 0050 1A70     		strb	r2, [r3, #0]
 257:.\Generated_Source\PSoC5/Timer_Nav.c ****     #endif /* Disable global enable for the Timer Fixed function block to stop the Timer*/
 258:.\Generated_Source\PSoC5/Timer_Nav.c **** }
 275              		.loc 1 258 0
 276 0052 BD46     		mov	sp, r7
 277 0054 80BC     		pop	{r7}
 278 0056 7047     		bx	lr
 279              		.cfi_endproc
 280              	.LFE3:
 281              		.size	Timer_Nav_Stop, .-Timer_Nav_Stop
 282              		.section	.text.Timer_Nav_SetInterruptMode,"ax",%progbits
 283              		.align	2
 284              		.global	Timer_Nav_SetInterruptMode
 285              		.thumb
 286              		.thumb_func
 287              		.type	Timer_Nav_SetInterruptMode, %function
 288              	Timer_Nav_SetInterruptMode:
 289              	.LFB4:
 259:.\Generated_Source\PSoC5/Timer_Nav.c **** 
 260:.\Generated_Source\PSoC5/Timer_Nav.c **** 
 261:.\Generated_Source\PSoC5/Timer_Nav.c **** /*******************************************************************************
 262:.\Generated_Source\PSoC5/Timer_Nav.c **** * Function Name: Timer_Nav_SetInterruptMode
 263:.\Generated_Source\PSoC5/Timer_Nav.c **** ********************************************************************************
 264:.\Generated_Source\PSoC5/Timer_Nav.c **** *
 265:.\Generated_Source\PSoC5/Timer_Nav.c **** * Summary:
 266:.\Generated_Source\PSoC5/Timer_Nav.c **** *  This function selects which of the interrupt inputs may cause an interrupt.
 267:.\Generated_Source\PSoC5/Timer_Nav.c **** *  The twosources are caputure and terminal.  One, both or neither may
 268:.\Generated_Source\PSoC5/Timer_Nav.c **** *  be selected.
 269:.\Generated_Source\PSoC5/Timer_Nav.c **** *
 270:.\Generated_Source\PSoC5/Timer_Nav.c **** * Parameters:
 271:.\Generated_Source\PSoC5/Timer_Nav.c **** *  interruptMode:   This parameter is used to enable interrups on either/or
 272:.\Generated_Source\PSoC5/Timer_Nav.c **** *                   terminal count or capture.
 273:.\Generated_Source\PSoC5/Timer_Nav.c **** *
 274:.\Generated_Source\PSoC5/Timer_Nav.c **** * Return:
 275:.\Generated_Source\PSoC5/Timer_Nav.c **** *  void
 276:.\Generated_Source\PSoC5/Timer_Nav.c **** *
 277:.\Generated_Source\PSoC5/Timer_Nav.c **** *******************************************************************************/
ARM GAS  C:\Users\dwguo\AppData\Local\Temp\ccR4paDK.s 			page 11


 278:.\Generated_Source\PSoC5/Timer_Nav.c **** void Timer_Nav_SetInterruptMode(uint8 interruptMode) 
 279:.\Generated_Source\PSoC5/Timer_Nav.c **** {
 290              		.loc 1 279 0
 291              		.cfi_startproc
 292              		@ args = 0, pretend = 0, frame = 8
 293              		@ frame_needed = 1, uses_anonymous_args = 0
 294              		@ link register save eliminated.
 295 0000 80B4     		push	{r7}
 296              	.LCFI8:
 297              		.cfi_def_cfa_offset 4
 298 0002 83B0     		sub	sp, sp, #12
 299              	.LCFI9:
 300              		.cfi_def_cfa_offset 16
 301 0004 00AF     		add	r7, sp, #0
 302              		.cfi_offset 7, -4
 303              	.LCFI10:
 304              		.cfi_def_cfa_register 7
 305 0006 0346     		mov	r3, r0
 306 0008 FB71     		strb	r3, [r7, #7]
 280:.\Generated_Source\PSoC5/Timer_Nav.c ****     Timer_Nav_STATUS_MASK = interruptMode;
 307              		.loc 1 280 0
 308 000a 44F60F73 		movw	r3, #:lower16:1073762063
 309 000e C4F20003 		movt	r3, #:upper16:1073762063
 310 0012 FA79     		ldrb	r2, [r7, #7]
 311 0014 1A70     		strb	r2, [r3, #0]
 281:.\Generated_Source\PSoC5/Timer_Nav.c **** }
 312              		.loc 1 281 0
 313 0016 07F10C07 		add	r7, r7, #12
 314 001a BD46     		mov	sp, r7
 315 001c 80BC     		pop	{r7}
 316 001e 7047     		bx	lr
 317              		.cfi_endproc
 318              	.LFE4:
 319              		.size	Timer_Nav_SetInterruptMode, .-Timer_Nav_SetInterruptMode
 320              		.section	.text.Timer_Nav_SoftwareCapture,"ax",%progbits
 321              		.align	2
 322              		.global	Timer_Nav_SoftwareCapture
 323              		.thumb
 324              		.thumb_func
 325              		.type	Timer_Nav_SoftwareCapture, %function
 326              	Timer_Nav_SoftwareCapture:
 327              	.LFB5:
 282:.\Generated_Source\PSoC5/Timer_Nav.c **** 
 283:.\Generated_Source\PSoC5/Timer_Nav.c **** 
 284:.\Generated_Source\PSoC5/Timer_Nav.c **** /*******************************************************************************
 285:.\Generated_Source\PSoC5/Timer_Nav.c **** * Function Name: Timer_Nav_SoftwareCapture
 286:.\Generated_Source\PSoC5/Timer_Nav.c **** ********************************************************************************
 287:.\Generated_Source\PSoC5/Timer_Nav.c **** *
 288:.\Generated_Source\PSoC5/Timer_Nav.c **** * Summary:
 289:.\Generated_Source\PSoC5/Timer_Nav.c **** *  This function forces a capture independent of the capture signal.
 290:.\Generated_Source\PSoC5/Timer_Nav.c **** *
 291:.\Generated_Source\PSoC5/Timer_Nav.c **** * Parameters:
 292:.\Generated_Source\PSoC5/Timer_Nav.c **** *  void
 293:.\Generated_Source\PSoC5/Timer_Nav.c **** *
 294:.\Generated_Source\PSoC5/Timer_Nav.c **** * Return:
 295:.\Generated_Source\PSoC5/Timer_Nav.c **** *  void
 296:.\Generated_Source\PSoC5/Timer_Nav.c **** *
ARM GAS  C:\Users\dwguo\AppData\Local\Temp\ccR4paDK.s 			page 12


 297:.\Generated_Source\PSoC5/Timer_Nav.c **** * Side Effects:
 298:.\Generated_Source\PSoC5/Timer_Nav.c **** *  An existing hardware capture could be overwritten.
 299:.\Generated_Source\PSoC5/Timer_Nav.c **** *
 300:.\Generated_Source\PSoC5/Timer_Nav.c **** *******************************************************************************/
 301:.\Generated_Source\PSoC5/Timer_Nav.c **** void Timer_Nav_SoftwareCapture(void) 
 302:.\Generated_Source\PSoC5/Timer_Nav.c **** {
 328              		.loc 1 302 0
 329              		.cfi_startproc
 330              		@ args = 0, pretend = 0, frame = 0
 331              		@ frame_needed = 1, uses_anonymous_args = 0
 332              		@ link register save eliminated.
 333 0000 80B4     		push	{r7}
 334              	.LCFI11:
 335              		.cfi_def_cfa_offset 4
 336 0002 00AF     		add	r7, sp, #0
 337              		.cfi_offset 7, -4
 338              	.LCFI12:
 339              		.cfi_def_cfa_register 7
 303:.\Generated_Source\PSoC5/Timer_Nav.c ****     /* Generate a software capture by reading the counter register */
 304:.\Generated_Source\PSoC5/Timer_Nav.c ****     CY_GET_REG8(Timer_Nav_COUNTER_LSB_PTR);
 340              		.loc 1 304 0
 341 0004 44F61273 		movw	r3, #:lower16:1073762066
 342 0008 C4F20003 		movt	r3, #:upper16:1073762066
 343 000c 1B78     		ldrb	r3, [r3, #0]
 305:.\Generated_Source\PSoC5/Timer_Nav.c ****     /* Capture Data is now in the FIFO */
 306:.\Generated_Source\PSoC5/Timer_Nav.c **** }
 344              		.loc 1 306 0
 345 000e BD46     		mov	sp, r7
 346 0010 80BC     		pop	{r7}
 347 0012 7047     		bx	lr
 348              		.cfi_endproc
 349              	.LFE5:
 350              		.size	Timer_Nav_SoftwareCapture, .-Timer_Nav_SoftwareCapture
 351              		.section	.text.Timer_Nav_ReadStatusRegister,"ax",%progbits
 352              		.align	2
 353              		.global	Timer_Nav_ReadStatusRegister
 354              		.thumb
 355              		.thumb_func
 356              		.type	Timer_Nav_ReadStatusRegister, %function
 357              	Timer_Nav_ReadStatusRegister:
 358              	.LFB6:
 307:.\Generated_Source\PSoC5/Timer_Nav.c **** 
 308:.\Generated_Source\PSoC5/Timer_Nav.c **** 
 309:.\Generated_Source\PSoC5/Timer_Nav.c **** /*******************************************************************************
 310:.\Generated_Source\PSoC5/Timer_Nav.c **** * Function Name: Timer_Nav_ReadStatusRegister
 311:.\Generated_Source\PSoC5/Timer_Nav.c **** ********************************************************************************
 312:.\Generated_Source\PSoC5/Timer_Nav.c **** *
 313:.\Generated_Source\PSoC5/Timer_Nav.c **** * Summary:
 314:.\Generated_Source\PSoC5/Timer_Nav.c **** *  Reads the status register and returns it's state. This function should use
 315:.\Generated_Source\PSoC5/Timer_Nav.c **** *  defined types for the bit-field information as the bits in this register may
 316:.\Generated_Source\PSoC5/Timer_Nav.c **** *  be permuteable.
 317:.\Generated_Source\PSoC5/Timer_Nav.c **** *
 318:.\Generated_Source\PSoC5/Timer_Nav.c **** * Parameters:
 319:.\Generated_Source\PSoC5/Timer_Nav.c **** *  void
 320:.\Generated_Source\PSoC5/Timer_Nav.c **** *
 321:.\Generated_Source\PSoC5/Timer_Nav.c **** * Return:
 322:.\Generated_Source\PSoC5/Timer_Nav.c **** *  The contents of the status register
ARM GAS  C:\Users\dwguo\AppData\Local\Temp\ccR4paDK.s 			page 13


 323:.\Generated_Source\PSoC5/Timer_Nav.c **** *
 324:.\Generated_Source\PSoC5/Timer_Nav.c **** * Side Effects:
 325:.\Generated_Source\PSoC5/Timer_Nav.c **** *  Status register bits may be clear on read.
 326:.\Generated_Source\PSoC5/Timer_Nav.c **** *
 327:.\Generated_Source\PSoC5/Timer_Nav.c **** *******************************************************************************/
 328:.\Generated_Source\PSoC5/Timer_Nav.c **** uint8   Timer_Nav_ReadStatusRegister(void) 
 329:.\Generated_Source\PSoC5/Timer_Nav.c **** {
 359              		.loc 1 329 0
 360              		.cfi_startproc
 361              		@ args = 0, pretend = 0, frame = 0
 362              		@ frame_needed = 1, uses_anonymous_args = 0
 363              		@ link register save eliminated.
 364 0000 80B4     		push	{r7}
 365              	.LCFI13:
 366              		.cfi_def_cfa_offset 4
 367 0002 00AF     		add	r7, sp, #0
 368              		.cfi_offset 7, -4
 369              	.LCFI14:
 370              		.cfi_def_cfa_register 7
 330:.\Generated_Source\PSoC5/Timer_Nav.c ****     return Timer_Nav_STATUS;
 371              		.loc 1 330 0
 372 0004 44F60F73 		movw	r3, #:lower16:1073762063
 373 0008 C4F20003 		movt	r3, #:upper16:1073762063
 374 000c 1B78     		ldrb	r3, [r3, #0]
 375 000e DBB2     		uxtb	r3, r3
 331:.\Generated_Source\PSoC5/Timer_Nav.c **** }
 376              		.loc 1 331 0
 377 0010 1846     		mov	r0, r3
 378 0012 BD46     		mov	sp, r7
 379 0014 80BC     		pop	{r7}
 380 0016 7047     		bx	lr
 381              		.cfi_endproc
 382              	.LFE6:
 383              		.size	Timer_Nav_ReadStatusRegister, .-Timer_Nav_ReadStatusRegister
 384              		.section	.text.Timer_Nav_ReadControlRegister,"ax",%progbits
 385              		.align	2
 386              		.global	Timer_Nav_ReadControlRegister
 387              		.thumb
 388              		.thumb_func
 389              		.type	Timer_Nav_ReadControlRegister, %function
 390              	Timer_Nav_ReadControlRegister:
 391              	.LFB7:
 332:.\Generated_Source\PSoC5/Timer_Nav.c **** 
 333:.\Generated_Source\PSoC5/Timer_Nav.c **** 
 334:.\Generated_Source\PSoC5/Timer_Nav.c **** #if (!Timer_Nav_ControlRegRemoved) /* Remove API if control register is removed */
 335:.\Generated_Source\PSoC5/Timer_Nav.c **** 
 336:.\Generated_Source\PSoC5/Timer_Nav.c **** 
 337:.\Generated_Source\PSoC5/Timer_Nav.c **** /*******************************************************************************
 338:.\Generated_Source\PSoC5/Timer_Nav.c **** * Function Name: Timer_Nav_ReadControlRegister
 339:.\Generated_Source\PSoC5/Timer_Nav.c **** ********************************************************************************
 340:.\Generated_Source\PSoC5/Timer_Nav.c **** *
 341:.\Generated_Source\PSoC5/Timer_Nav.c **** * Summary:
 342:.\Generated_Source\PSoC5/Timer_Nav.c **** *  Reads the control register and returns it's value.
 343:.\Generated_Source\PSoC5/Timer_Nav.c **** *
 344:.\Generated_Source\PSoC5/Timer_Nav.c **** * Parameters:
 345:.\Generated_Source\PSoC5/Timer_Nav.c **** *  void
 346:.\Generated_Source\PSoC5/Timer_Nav.c **** *
ARM GAS  C:\Users\dwguo\AppData\Local\Temp\ccR4paDK.s 			page 14


 347:.\Generated_Source\PSoC5/Timer_Nav.c **** * Return:
 348:.\Generated_Source\PSoC5/Timer_Nav.c **** *  The contents of the control register
 349:.\Generated_Source\PSoC5/Timer_Nav.c **** *
 350:.\Generated_Source\PSoC5/Timer_Nav.c **** *******************************************************************************/
 351:.\Generated_Source\PSoC5/Timer_Nav.c **** uint8 Timer_Nav_ReadControlRegister(void) 
 352:.\Generated_Source\PSoC5/Timer_Nav.c **** {
 392              		.loc 1 352 0
 393              		.cfi_startproc
 394              		@ args = 0, pretend = 0, frame = 0
 395              		@ frame_needed = 1, uses_anonymous_args = 0
 396              		@ link register save eliminated.
 397 0000 80B4     		push	{r7}
 398              	.LCFI15:
 399              		.cfi_def_cfa_offset 4
 400 0002 00AF     		add	r7, sp, #0
 401              		.cfi_offset 7, -4
 402              	.LCFI16:
 403              		.cfi_def_cfa_register 7
 353:.\Generated_Source\PSoC5/Timer_Nav.c ****     return Timer_Nav_CONTROL;
 404              		.loc 1 353 0
 405 0004 44F60C73 		movw	r3, #:lower16:1073762060
 406 0008 C4F20003 		movt	r3, #:upper16:1073762060
 407 000c 1B78     		ldrb	r3, [r3, #0]
 408 000e DBB2     		uxtb	r3, r3
 354:.\Generated_Source\PSoC5/Timer_Nav.c **** }
 409              		.loc 1 354 0
 410 0010 1846     		mov	r0, r3
 411 0012 BD46     		mov	sp, r7
 412 0014 80BC     		pop	{r7}
 413 0016 7047     		bx	lr
 414              		.cfi_endproc
 415              	.LFE7:
 416              		.size	Timer_Nav_ReadControlRegister, .-Timer_Nav_ReadControlRegister
 417              		.section	.text.Timer_Nav_WriteControlRegister,"ax",%progbits
 418              		.align	2
 419              		.global	Timer_Nav_WriteControlRegister
 420              		.thumb
 421              		.thumb_func
 422              		.type	Timer_Nav_WriteControlRegister, %function
 423              	Timer_Nav_WriteControlRegister:
 424              	.LFB8:
 355:.\Generated_Source\PSoC5/Timer_Nav.c **** 
 356:.\Generated_Source\PSoC5/Timer_Nav.c **** 
 357:.\Generated_Source\PSoC5/Timer_Nav.c **** /*******************************************************************************
 358:.\Generated_Source\PSoC5/Timer_Nav.c **** * Function Name: Timer_Nav_WriteControlRegister
 359:.\Generated_Source\PSoC5/Timer_Nav.c **** ********************************************************************************
 360:.\Generated_Source\PSoC5/Timer_Nav.c **** *
 361:.\Generated_Source\PSoC5/Timer_Nav.c **** * Summary:
 362:.\Generated_Source\PSoC5/Timer_Nav.c **** *  Sets the bit-field of the control register.
 363:.\Generated_Source\PSoC5/Timer_Nav.c **** *
 364:.\Generated_Source\PSoC5/Timer_Nav.c **** * Parameters:
 365:.\Generated_Source\PSoC5/Timer_Nav.c **** *  control: The contents of the control register
 366:.\Generated_Source\PSoC5/Timer_Nav.c **** *
 367:.\Generated_Source\PSoC5/Timer_Nav.c **** * Return:
 368:.\Generated_Source\PSoC5/Timer_Nav.c **** *
 369:.\Generated_Source\PSoC5/Timer_Nav.c **** *******************************************************************************/
 370:.\Generated_Source\PSoC5/Timer_Nav.c **** void Timer_Nav_WriteControlRegister(uint8 control) 
ARM GAS  C:\Users\dwguo\AppData\Local\Temp\ccR4paDK.s 			page 15


 371:.\Generated_Source\PSoC5/Timer_Nav.c **** {
 425              		.loc 1 371 0
 426              		.cfi_startproc
 427              		@ args = 0, pretend = 0, frame = 8
 428              		@ frame_needed = 1, uses_anonymous_args = 0
 429              		@ link register save eliminated.
 430 0000 80B4     		push	{r7}
 431              	.LCFI17:
 432              		.cfi_def_cfa_offset 4
 433 0002 83B0     		sub	sp, sp, #12
 434              	.LCFI18:
 435              		.cfi_def_cfa_offset 16
 436 0004 00AF     		add	r7, sp, #0
 437              		.cfi_offset 7, -4
 438              	.LCFI19:
 439              		.cfi_def_cfa_register 7
 440 0006 0346     		mov	r3, r0
 441 0008 FB71     		strb	r3, [r7, #7]
 372:.\Generated_Source\PSoC5/Timer_Nav.c ****     Timer_Nav_CONTROL = control;
 442              		.loc 1 372 0
 443 000a 44F60C73 		movw	r3, #:lower16:1073762060
 444 000e C4F20003 		movt	r3, #:upper16:1073762060
 445 0012 FA79     		ldrb	r2, [r7, #7]
 446 0014 1A70     		strb	r2, [r3, #0]
 373:.\Generated_Source\PSoC5/Timer_Nav.c **** }
 447              		.loc 1 373 0
 448 0016 07F10C07 		add	r7, r7, #12
 449 001a BD46     		mov	sp, r7
 450 001c 80BC     		pop	{r7}
 451 001e 7047     		bx	lr
 452              		.cfi_endproc
 453              	.LFE8:
 454              		.size	Timer_Nav_WriteControlRegister, .-Timer_Nav_WriteControlRegister
 455              		.section	.text.Timer_Nav_ReadPeriod,"ax",%progbits
 456              		.align	2
 457              		.global	Timer_Nav_ReadPeriod
 458              		.thumb
 459              		.thumb_func
 460              		.type	Timer_Nav_ReadPeriod, %function
 461              	Timer_Nav_ReadPeriod:
 462              	.LFB9:
 374:.\Generated_Source\PSoC5/Timer_Nav.c **** #endif /* Remove API if control register is removed */
 375:.\Generated_Source\PSoC5/Timer_Nav.c **** 
 376:.\Generated_Source\PSoC5/Timer_Nav.c **** 
 377:.\Generated_Source\PSoC5/Timer_Nav.c **** /*******************************************************************************
 378:.\Generated_Source\PSoC5/Timer_Nav.c **** * Function Name: Timer_Nav_ReadPeriod
 379:.\Generated_Source\PSoC5/Timer_Nav.c **** ********************************************************************************
 380:.\Generated_Source\PSoC5/Timer_Nav.c **** *
 381:.\Generated_Source\PSoC5/Timer_Nav.c **** * Summary:
 382:.\Generated_Source\PSoC5/Timer_Nav.c **** *  This function returns the current value of the Period.
 383:.\Generated_Source\PSoC5/Timer_Nav.c **** *
 384:.\Generated_Source\PSoC5/Timer_Nav.c **** * Parameters:
 385:.\Generated_Source\PSoC5/Timer_Nav.c **** *  void
 386:.\Generated_Source\PSoC5/Timer_Nav.c **** *
 387:.\Generated_Source\PSoC5/Timer_Nav.c **** * Return:
 388:.\Generated_Source\PSoC5/Timer_Nav.c **** *  The present value of the counter.
 389:.\Generated_Source\PSoC5/Timer_Nav.c **** *
ARM GAS  C:\Users\dwguo\AppData\Local\Temp\ccR4paDK.s 			page 16


 390:.\Generated_Source\PSoC5/Timer_Nav.c **** *******************************************************************************/
 391:.\Generated_Source\PSoC5/Timer_Nav.c **** uint16 Timer_Nav_ReadPeriod(void) 
 392:.\Generated_Source\PSoC5/Timer_Nav.c **** {
 463              		.loc 1 392 0
 464              		.cfi_startproc
 465              		@ args = 0, pretend = 0, frame = 0
 466              		@ frame_needed = 1, uses_anonymous_args = 0
 467              		@ link register save eliminated.
 468 0000 80B4     		push	{r7}
 469              	.LCFI20:
 470              		.cfi_def_cfa_offset 4
 471 0002 00AF     		add	r7, sp, #0
 472              		.cfi_offset 7, -4
 473              	.LCFI21:
 474              		.cfi_def_cfa_register 7
 393:.\Generated_Source\PSoC5/Timer_Nav.c ****    return ( CY_GET_REG16(Timer_Nav_PERIOD_LSB_PTR) );
 475              		.loc 1 393 0
 476 0004 44F61073 		movw	r3, #:lower16:1073762064
 477 0008 C4F20003 		movt	r3, #:upper16:1073762064
 478 000c 1B88     		ldrh	r3, [r3, #0]	@ movhi
 479 000e 9BB2     		uxth	r3, r3
 394:.\Generated_Source\PSoC5/Timer_Nav.c **** }
 480              		.loc 1 394 0
 481 0010 1846     		mov	r0, r3
 482 0012 BD46     		mov	sp, r7
 483 0014 80BC     		pop	{r7}
 484 0016 7047     		bx	lr
 485              		.cfi_endproc
 486              	.LFE9:
 487              		.size	Timer_Nav_ReadPeriod, .-Timer_Nav_ReadPeriod
 488              		.section	.text.Timer_Nav_WritePeriod,"ax",%progbits
 489              		.align	2
 490              		.global	Timer_Nav_WritePeriod
 491              		.thumb
 492              		.thumb_func
 493              		.type	Timer_Nav_WritePeriod, %function
 494              	Timer_Nav_WritePeriod:
 495              	.LFB10:
 395:.\Generated_Source\PSoC5/Timer_Nav.c **** 
 396:.\Generated_Source\PSoC5/Timer_Nav.c **** 
 397:.\Generated_Source\PSoC5/Timer_Nav.c **** /*******************************************************************************
 398:.\Generated_Source\PSoC5/Timer_Nav.c **** * Function Name: Timer_Nav_WritePeriod
 399:.\Generated_Source\PSoC5/Timer_Nav.c **** ********************************************************************************
 400:.\Generated_Source\PSoC5/Timer_Nav.c **** *
 401:.\Generated_Source\PSoC5/Timer_Nav.c **** * Summary:
 402:.\Generated_Source\PSoC5/Timer_Nav.c **** *  This function is used to change the period of the counter.  The new period
 403:.\Generated_Source\PSoC5/Timer_Nav.c **** *  will be loaded the next time terminal count is detected.
 404:.\Generated_Source\PSoC5/Timer_Nav.c **** *
 405:.\Generated_Source\PSoC5/Timer_Nav.c **** * Parameters:
 406:.\Generated_Source\PSoC5/Timer_Nav.c **** *  period: This value may be between 1 and (2^Resolution)-1.  A value of 0 will
 407:.\Generated_Source\PSoC5/Timer_Nav.c **** *          result in the counter remaining at zero.
 408:.\Generated_Source\PSoC5/Timer_Nav.c **** *
 409:.\Generated_Source\PSoC5/Timer_Nav.c **** * Return:
 410:.\Generated_Source\PSoC5/Timer_Nav.c **** *  void
 411:.\Generated_Source\PSoC5/Timer_Nav.c **** *
 412:.\Generated_Source\PSoC5/Timer_Nav.c **** *******************************************************************************/
 413:.\Generated_Source\PSoC5/Timer_Nav.c **** void Timer_Nav_WritePeriod(uint16 period) 
ARM GAS  C:\Users\dwguo\AppData\Local\Temp\ccR4paDK.s 			page 17


 414:.\Generated_Source\PSoC5/Timer_Nav.c **** {
 496              		.loc 1 414 0
 497              		.cfi_startproc
 498              		@ args = 0, pretend = 0, frame = 16
 499              		@ frame_needed = 1, uses_anonymous_args = 0
 500              		@ link register save eliminated.
 501 0000 80B4     		push	{r7}
 502              	.LCFI22:
 503              		.cfi_def_cfa_offset 4
 504 0002 85B0     		sub	sp, sp, #20
 505              	.LCFI23:
 506              		.cfi_def_cfa_offset 24
 507 0004 00AF     		add	r7, sp, #0
 508              		.cfi_offset 7, -4
 509              	.LCFI24:
 510              		.cfi_def_cfa_register 7
 511 0006 0346     		mov	r3, r0
 512 0008 FB80     		strh	r3, [r7, #6]	@ movhi
 415:.\Generated_Source\PSoC5/Timer_Nav.c ****     #if(Timer_Nav_UsingFixedFunction)
 416:.\Generated_Source\PSoC5/Timer_Nav.c ****         uint16 period_temp = (uint16)period;
 513              		.loc 1 416 0
 514 000a FB88     		ldrh	r3, [r7, #6]	@ movhi
 515 000c FB81     		strh	r3, [r7, #14]	@ movhi
 417:.\Generated_Source\PSoC5/Timer_Nav.c ****         CY_SET_REG16(Timer_Nav_PERIOD_LSB_PTR, period_temp);
 516              		.loc 1 417 0
 517 000e 44F61073 		movw	r3, #:lower16:1073762064
 518 0012 C4F20003 		movt	r3, #:upper16:1073762064
 519 0016 FA89     		ldrh	r2, [r7, #14]	@ movhi
 520 0018 1A80     		strh	r2, [r3, #0]	@ movhi
 418:.\Generated_Source\PSoC5/Timer_Nav.c ****     #else
 419:.\Generated_Source\PSoC5/Timer_Nav.c ****         CY_SET_REG16(Timer_Nav_PERIOD_LSB_PTR, period);
 420:.\Generated_Source\PSoC5/Timer_Nav.c ****     #endif /*Write Period value with appropriate resolution suffix depending on UDB or fixed functi
 421:.\Generated_Source\PSoC5/Timer_Nav.c **** }
 521              		.loc 1 421 0
 522 001a 07F11407 		add	r7, r7, #20
 523 001e BD46     		mov	sp, r7
 524 0020 80BC     		pop	{r7}
 525 0022 7047     		bx	lr
 526              		.cfi_endproc
 527              	.LFE10:
 528              		.size	Timer_Nav_WritePeriod, .-Timer_Nav_WritePeriod
 529              		.section	.text.Timer_Nav_ReadCapture,"ax",%progbits
 530              		.align	2
 531              		.global	Timer_Nav_ReadCapture
 532              		.thumb
 533              		.thumb_func
 534              		.type	Timer_Nav_ReadCapture, %function
 535              	Timer_Nav_ReadCapture:
 536              	.LFB11:
 422:.\Generated_Source\PSoC5/Timer_Nav.c **** 
 423:.\Generated_Source\PSoC5/Timer_Nav.c **** 
 424:.\Generated_Source\PSoC5/Timer_Nav.c **** /*******************************************************************************
 425:.\Generated_Source\PSoC5/Timer_Nav.c **** * Function Name: Timer_Nav_ReadCapture
 426:.\Generated_Source\PSoC5/Timer_Nav.c **** ********************************************************************************
 427:.\Generated_Source\PSoC5/Timer_Nav.c **** *
 428:.\Generated_Source\PSoC5/Timer_Nav.c **** * Summary:
 429:.\Generated_Source\PSoC5/Timer_Nav.c **** *  This function returns the last value captured.
ARM GAS  C:\Users\dwguo\AppData\Local\Temp\ccR4paDK.s 			page 18


 430:.\Generated_Source\PSoC5/Timer_Nav.c **** *
 431:.\Generated_Source\PSoC5/Timer_Nav.c **** * Parameters:
 432:.\Generated_Source\PSoC5/Timer_Nav.c **** *  void
 433:.\Generated_Source\PSoC5/Timer_Nav.c **** *
 434:.\Generated_Source\PSoC5/Timer_Nav.c **** * Return:
 435:.\Generated_Source\PSoC5/Timer_Nav.c **** *  Present Capture value.
 436:.\Generated_Source\PSoC5/Timer_Nav.c **** *
 437:.\Generated_Source\PSoC5/Timer_Nav.c **** *******************************************************************************/
 438:.\Generated_Source\PSoC5/Timer_Nav.c **** uint16 Timer_Nav_ReadCapture(void) 
 439:.\Generated_Source\PSoC5/Timer_Nav.c **** {
 537              		.loc 1 439 0
 538              		.cfi_startproc
 539              		@ args = 0, pretend = 0, frame = 0
 540              		@ frame_needed = 1, uses_anonymous_args = 0
 541              		@ link register save eliminated.
 542 0000 80B4     		push	{r7}
 543              	.LCFI25:
 544              		.cfi_def_cfa_offset 4
 545 0002 00AF     		add	r7, sp, #0
 546              		.cfi_offset 7, -4
 547              	.LCFI26:
 548              		.cfi_def_cfa_register 7
 440:.\Generated_Source\PSoC5/Timer_Nav.c ****    return ( CY_GET_REG16(Timer_Nav_CAPTURE_LSB_PTR) );
 549              		.loc 1 440 0
 550 0004 44F61473 		movw	r3, #:lower16:1073762068
 551 0008 C4F20003 		movt	r3, #:upper16:1073762068
 552 000c 1B88     		ldrh	r3, [r3, #0]	@ movhi
 553 000e 9BB2     		uxth	r3, r3
 441:.\Generated_Source\PSoC5/Timer_Nav.c **** }
 554              		.loc 1 441 0
 555 0010 1846     		mov	r0, r3
 556 0012 BD46     		mov	sp, r7
 557 0014 80BC     		pop	{r7}
 558 0016 7047     		bx	lr
 559              		.cfi_endproc
 560              	.LFE11:
 561              		.size	Timer_Nav_ReadCapture, .-Timer_Nav_ReadCapture
 562              		.section	.text.Timer_Nav_WriteCounter,"ax",%progbits
 563              		.align	2
 564              		.global	Timer_Nav_WriteCounter
 565              		.thumb
 566              		.thumb_func
 567              		.type	Timer_Nav_WriteCounter, %function
 568              	Timer_Nav_WriteCounter:
 569              	.LFB12:
 442:.\Generated_Source\PSoC5/Timer_Nav.c **** 
 443:.\Generated_Source\PSoC5/Timer_Nav.c **** 
 444:.\Generated_Source\PSoC5/Timer_Nav.c **** /*******************************************************************************
 445:.\Generated_Source\PSoC5/Timer_Nav.c **** * Function Name: Timer_Nav_WriteCounter
 446:.\Generated_Source\PSoC5/Timer_Nav.c **** ********************************************************************************
 447:.\Generated_Source\PSoC5/Timer_Nav.c **** *
 448:.\Generated_Source\PSoC5/Timer_Nav.c **** * Summary:
 449:.\Generated_Source\PSoC5/Timer_Nav.c **** *  This funtion is used to set the counter to a specific value
 450:.\Generated_Source\PSoC5/Timer_Nav.c **** *
 451:.\Generated_Source\PSoC5/Timer_Nav.c **** * Parameters:
 452:.\Generated_Source\PSoC5/Timer_Nav.c **** *  counter:  New counter value.
 453:.\Generated_Source\PSoC5/Timer_Nav.c **** *
ARM GAS  C:\Users\dwguo\AppData\Local\Temp\ccR4paDK.s 			page 19


 454:.\Generated_Source\PSoC5/Timer_Nav.c **** * Return:
 455:.\Generated_Source\PSoC5/Timer_Nav.c **** *  void
 456:.\Generated_Source\PSoC5/Timer_Nav.c **** *
 457:.\Generated_Source\PSoC5/Timer_Nav.c **** *******************************************************************************/
 458:.\Generated_Source\PSoC5/Timer_Nav.c **** void Timer_Nav_WriteCounter(uint16 counter) \
 459:.\Generated_Source\PSoC5/Timer_Nav.c ****                                    
 460:.\Generated_Source\PSoC5/Timer_Nav.c **** {
 570              		.loc 1 460 0
 571              		.cfi_startproc
 572              		@ args = 0, pretend = 0, frame = 8
 573              		@ frame_needed = 1, uses_anonymous_args = 0
 574              		@ link register save eliminated.
 575 0000 80B4     		push	{r7}
 576              	.LCFI27:
 577              		.cfi_def_cfa_offset 4
 578 0002 83B0     		sub	sp, sp, #12
 579              	.LCFI28:
 580              		.cfi_def_cfa_offset 16
 581 0004 00AF     		add	r7, sp, #0
 582              		.cfi_offset 7, -4
 583              	.LCFI29:
 584              		.cfi_def_cfa_register 7
 585 0006 0346     		mov	r3, r0
 586 0008 FB80     		strh	r3, [r7, #6]	@ movhi
 461:.\Generated_Source\PSoC5/Timer_Nav.c ****    #if(Timer_Nav_UsingFixedFunction)
 462:.\Generated_Source\PSoC5/Timer_Nav.c ****         counter = counter;
 463:.\Generated_Source\PSoC5/Timer_Nav.c ****         /* This functionality is removed until a FixedFunction HW update to
 464:.\Generated_Source\PSoC5/Timer_Nav.c ****          * allow this register to be written
 465:.\Generated_Source\PSoC5/Timer_Nav.c ****          */
 466:.\Generated_Source\PSoC5/Timer_Nav.c ****         /* uint16 counter_temp = (uint16)counter;
 467:.\Generated_Source\PSoC5/Timer_Nav.c ****          * CY_SET_REG16(Timer_Nav_COUNTER_LSB_PTR, counter_temp);
 468:.\Generated_Source\PSoC5/Timer_Nav.c ****          */
 469:.\Generated_Source\PSoC5/Timer_Nav.c ****     #else
 470:.\Generated_Source\PSoC5/Timer_Nav.c ****         CY_SET_REG16(Timer_Nav_COUNTER_LSB_PTR, counter);
 471:.\Generated_Source\PSoC5/Timer_Nav.c ****     #endif /* Set Write Counter only for the UDB implementation (Write Counter not available in fix
 472:.\Generated_Source\PSoC5/Timer_Nav.c **** }
 587              		.loc 1 472 0
 588 000a 07F10C07 		add	r7, r7, #12
 589 000e BD46     		mov	sp, r7
 590 0010 80BC     		pop	{r7}
 591 0012 7047     		bx	lr
 592              		.cfi_endproc
 593              	.LFE12:
 594              		.size	Timer_Nav_WriteCounter, .-Timer_Nav_WriteCounter
 595              		.section	.text.Timer_Nav_ReadCounter,"ax",%progbits
 596              		.align	2
 597              		.global	Timer_Nav_ReadCounter
 598              		.thumb
 599              		.thumb_func
 600              		.type	Timer_Nav_ReadCounter, %function
 601              	Timer_Nav_ReadCounter:
 602              	.LFB13:
 473:.\Generated_Source\PSoC5/Timer_Nav.c **** 
 474:.\Generated_Source\PSoC5/Timer_Nav.c **** 
 475:.\Generated_Source\PSoC5/Timer_Nav.c **** /*******************************************************************************
 476:.\Generated_Source\PSoC5/Timer_Nav.c **** * Function Name: Timer_Nav_ReadCounter
 477:.\Generated_Source\PSoC5/Timer_Nav.c **** ********************************************************************************
ARM GAS  C:\Users\dwguo\AppData\Local\Temp\ccR4paDK.s 			page 20


 478:.\Generated_Source\PSoC5/Timer_Nav.c **** *
 479:.\Generated_Source\PSoC5/Timer_Nav.c **** * Summary:
 480:.\Generated_Source\PSoC5/Timer_Nav.c **** *  This function returns the current counter value.
 481:.\Generated_Source\PSoC5/Timer_Nav.c **** *
 482:.\Generated_Source\PSoC5/Timer_Nav.c **** * Parameters:
 483:.\Generated_Source\PSoC5/Timer_Nav.c **** *  void
 484:.\Generated_Source\PSoC5/Timer_Nav.c **** *
 485:.\Generated_Source\PSoC5/Timer_Nav.c **** * Return:
 486:.\Generated_Source\PSoC5/Timer_Nav.c **** *  Present compare value.
 487:.\Generated_Source\PSoC5/Timer_Nav.c **** *
 488:.\Generated_Source\PSoC5/Timer_Nav.c **** *******************************************************************************/
 489:.\Generated_Source\PSoC5/Timer_Nav.c **** uint16 Timer_Nav_ReadCounter(void) 
 490:.\Generated_Source\PSoC5/Timer_Nav.c **** {
 603              		.loc 1 490 0
 604              		.cfi_startproc
 605              		@ args = 0, pretend = 0, frame = 0
 606              		@ frame_needed = 1, uses_anonymous_args = 0
 607              		@ link register save eliminated.
 608 0000 80B4     		push	{r7}
 609              	.LCFI30:
 610              		.cfi_def_cfa_offset 4
 611 0002 00AF     		add	r7, sp, #0
 612              		.cfi_offset 7, -4
 613              	.LCFI31:
 614              		.cfi_def_cfa_register 7
 491:.\Generated_Source\PSoC5/Timer_Nav.c **** 
 492:.\Generated_Source\PSoC5/Timer_Nav.c ****     /* Force capture by reading Accumulator */
 493:.\Generated_Source\PSoC5/Timer_Nav.c ****     /* Must first do a software capture to be able to read the counter */
 494:.\Generated_Source\PSoC5/Timer_Nav.c ****     /* It is up to the user code to make sure there isn't already captured data in the FIFO */
 495:.\Generated_Source\PSoC5/Timer_Nav.c ****     CY_GET_REG8(Timer_Nav_COUNTER_LSB_PTR);
 615              		.loc 1 495 0
 616 0004 44F61273 		movw	r3, #:lower16:1073762066
 617 0008 C4F20003 		movt	r3, #:upper16:1073762066
 618 000c 1B78     		ldrb	r3, [r3, #0]
 496:.\Generated_Source\PSoC5/Timer_Nav.c **** 
 497:.\Generated_Source\PSoC5/Timer_Nav.c ****     /* Read the data from the FIFO (or capture register for Fixed Function)*/
 498:.\Generated_Source\PSoC5/Timer_Nav.c ****     return (CY_GET_REG16(Timer_Nav_CAPTURE_LSB_PTR));
 619              		.loc 1 498 0
 620 000e 44F61473 		movw	r3, #:lower16:1073762068
 621 0012 C4F20003 		movt	r3, #:upper16:1073762068
 622 0016 1B88     		ldrh	r3, [r3, #0]	@ movhi
 623 0018 9BB2     		uxth	r3, r3
 499:.\Generated_Source\PSoC5/Timer_Nav.c **** }
 624              		.loc 1 499 0
 625 001a 1846     		mov	r0, r3
 626 001c BD46     		mov	sp, r7
 627 001e 80BC     		pop	{r7}
 628 0020 7047     		bx	lr
 629              		.cfi_endproc
 630              	.LFE13:
 631              		.size	Timer_Nav_ReadCounter, .-Timer_Nav_ReadCounter
 632 0022 00BF     		.text
 633              	.Letext0: