ARM GAS  C:\Users\dwguo\AppData\Local\Temp\ccNFeUnw.s 			page 1


   1              		.syntax unified
   2              		.cpu cortex-m3
   3              		.fpu softvfp
   4              		.eabi_attribute 20, 1
   5              		.eabi_attribute 21, 1
   6              		.eabi_attribute 23, 3
   7              		.eabi_attribute 24, 1
   8              		.eabi_attribute 25, 1
   9              		.eabi_attribute 26, 1
  10              		.eabi_attribute 30, 6
  11              		.eabi_attribute 18, 4
  12              		.thumb
  13              		.file	"Timer_Infrared.c"
  20 0000 A4010000 		.text
  20      02006700 
  20      00000201 
  20      FB0E0D00 
  20      01010101 
  21              	.Ltext0:
  22              		.cfi_sections	.debug_frame
  23              		.global	Timer_Infrared_initVar
  24              		.bss
  25              		.type	Timer_Infrared_initVar, %object
  26              		.size	Timer_Infrared_initVar, 1
  27              	Timer_Infrared_initVar:
  28 0000 00       		.space	1
  29              		.section	.text.Timer_Infrared_Init,"ax",%progbits
  30              		.align	2
  31              		.global	Timer_Infrared_Init
  32              		.thumb
  33              		.thumb_func
  34              		.type	Timer_Infrared_Init, %function
  35              	Timer_Infrared_Init:
  36              	.LFB0:
  37              		.file 1 ".\\Generated_Source\\PSoC5\\Timer_Infrared.c"
   1:.\Generated_Source\PSoC5/Timer_Infrared.c **** /*******************************************************************************
   2:.\Generated_Source\PSoC5/Timer_Infrared.c **** * File Name: Timer_Infrared.c
   3:.\Generated_Source\PSoC5/Timer_Infrared.c **** * Version 2.30
   4:.\Generated_Source\PSoC5/Timer_Infrared.c **** *
   5:.\Generated_Source\PSoC5/Timer_Infrared.c **** * Description:
   6:.\Generated_Source\PSoC5/Timer_Infrared.c **** *  The Timer component consists of a 8, 16, 24 or 32-bit timer with
   7:.\Generated_Source\PSoC5/Timer_Infrared.c **** *  a selectable period between 2 and 2^Width - 1.  The timer may free run
   8:.\Generated_Source\PSoC5/Timer_Infrared.c **** *  or be used as a capture timer as well.  The capture can be initiated
   9:.\Generated_Source\PSoC5/Timer_Infrared.c **** *  by a positive or negative edge signal as well as via software.
  10:.\Generated_Source\PSoC5/Timer_Infrared.c **** *  A trigger input can be programmed to enable the timer on rising edge
  11:.\Generated_Source\PSoC5/Timer_Infrared.c **** *  falling edge, either edge or continous run.
  12:.\Generated_Source\PSoC5/Timer_Infrared.c **** *  Interrupts may be generated due to a terminal count condition
  13:.\Generated_Source\PSoC5/Timer_Infrared.c **** *  or a capture event.
  14:.\Generated_Source\PSoC5/Timer_Infrared.c **** *
  15:.\Generated_Source\PSoC5/Timer_Infrared.c **** * Note:
  16:.\Generated_Source\PSoC5/Timer_Infrared.c **** *
ARM GAS  C:\Users\dwguo\AppData\Local\Temp\ccNFeUnw.s 			page 2


  17:.\Generated_Source\PSoC5/Timer_Infrared.c **** ********************************************************************************
  18:.\Generated_Source\PSoC5/Timer_Infrared.c **** * Copyright 2008-2012, Cypress Semiconductor Corporation.  All rights reserved.
  19:.\Generated_Source\PSoC5/Timer_Infrared.c **** * You may use this file only in accordance with the license, terms, conditions,
  20:.\Generated_Source\PSoC5/Timer_Infrared.c **** * disclaimers, and limitations in the end user license agreement accompanying
  21:.\Generated_Source\PSoC5/Timer_Infrared.c **** * the software package with which this file was provided.
  22:.\Generated_Source\PSoC5/Timer_Infrared.c **** ********************************************************************************/
  23:.\Generated_Source\PSoC5/Timer_Infrared.c **** 
  24:.\Generated_Source\PSoC5/Timer_Infrared.c **** #include "Timer_Infrared.h"
  25:.\Generated_Source\PSoC5/Timer_Infrared.c **** 
  26:.\Generated_Source\PSoC5/Timer_Infrared.c **** uint8 Timer_Infrared_initVar = 0u;
  27:.\Generated_Source\PSoC5/Timer_Infrared.c **** 
  28:.\Generated_Source\PSoC5/Timer_Infrared.c **** 
  29:.\Generated_Source\PSoC5/Timer_Infrared.c **** /*******************************************************************************
  30:.\Generated_Source\PSoC5/Timer_Infrared.c **** * Function Name: Timer_Infrared_Init
  31:.\Generated_Source\PSoC5/Timer_Infrared.c **** ********************************************************************************
  32:.\Generated_Source\PSoC5/Timer_Infrared.c **** *
  33:.\Generated_Source\PSoC5/Timer_Infrared.c **** * Summary:
  34:.\Generated_Source\PSoC5/Timer_Infrared.c **** *  Initialize to the schematic state
  35:.\Generated_Source\PSoC5/Timer_Infrared.c **** *
  36:.\Generated_Source\PSoC5/Timer_Infrared.c **** * Parameters:
  37:.\Generated_Source\PSoC5/Timer_Infrared.c **** *  void
  38:.\Generated_Source\PSoC5/Timer_Infrared.c **** *
  39:.\Generated_Source\PSoC5/Timer_Infrared.c **** * Return:
  40:.\Generated_Source\PSoC5/Timer_Infrared.c **** *  void
  41:.\Generated_Source\PSoC5/Timer_Infrared.c **** *
  42:.\Generated_Source\PSoC5/Timer_Infrared.c **** *******************************************************************************/
  43:.\Generated_Source\PSoC5/Timer_Infrared.c **** void Timer_Infrared_Init(void) 
  44:.\Generated_Source\PSoC5/Timer_Infrared.c **** {
  38              		.loc 1 44 0
  39              		.cfi_startproc
  40              		@ args = 0, pretend = 0, frame = 8
  41              		@ frame_needed = 1, uses_anonymous_args = 0
  42 0000 80B5     		push	{r7, lr}
  43              	.LCFI0:
  44              		.cfi_def_cfa_offset 8
  45 0002 82B0     		sub	sp, sp, #8
  46              	.LCFI1:
  47              		.cfi_def_cfa_offset 16
  48 0004 00AF     		add	r7, sp, #0
  49              		.cfi_offset 14, -4
  50              		.cfi_offset 7, -8
  51              	.LCFI2:
  52              		.cfi_def_cfa_register 7
  45:.\Generated_Source\PSoC5/Timer_Infrared.c ****     #if(!Timer_Infrared_UsingFixedFunction)
  46:.\Generated_Source\PSoC5/Timer_Infrared.c ****             /* Interrupt State Backup for Critical Region*/
  47:.\Generated_Source\PSoC5/Timer_Infrared.c ****             uint8 Timer_Infrared_interruptState;
  48:.\Generated_Source\PSoC5/Timer_Infrared.c ****     #endif /* Interrupt state back up for Fixed Function only */
  49:.\Generated_Source\PSoC5/Timer_Infrared.c **** 
  50:.\Generated_Source\PSoC5/Timer_Infrared.c ****     #if (Timer_Infrared_UsingFixedFunction)
  51:.\Generated_Source\PSoC5/Timer_Infrared.c ****         /* Clear all bits but the enable bit (if it's already set) for Timer operation */
  52:.\Generated_Source\PSoC5/Timer_Infrared.c ****         Timer_Infrared_CONTROL &= Timer_Infrared_CTRL_ENABLE;
  53:.\Generated_Source\PSoC5/Timer_Infrared.c **** 
  54:.\Generated_Source\PSoC5/Timer_Infrared.c ****         /* Clear the mode bits for continuous run mode */
  55:.\Generated_Source\PSoC5/Timer_Infrared.c ****         #if (CY_PSOC5A)
  56:.\Generated_Source\PSoC5/Timer_Infrared.c ****             Timer_Infrared_CONTROL2 &= ~Timer_Infrared_CTRL_MODE_MASK;
  57:.\Generated_Source\PSoC5/Timer_Infrared.c ****         #endif /* Clear bits in CONTROL2 only in PSOC5A */
  58:.\Generated_Source\PSoC5/Timer_Infrared.c **** 
ARM GAS  C:\Users\dwguo\AppData\Local\Temp\ccNFeUnw.s 			page 3


  59:.\Generated_Source\PSoC5/Timer_Infrared.c ****         #if (CY_PSOC3 || CY_PSOC5LP)
  60:.\Generated_Source\PSoC5/Timer_Infrared.c ****             Timer_Infrared_CONTROL3 &= ~Timer_Infrared_CTRL_MODE_MASK;
  61:.\Generated_Source\PSoC5/Timer_Infrared.c ****         #endif /* CONTROL3 register exists only in PSoC3 OR PSoC5LP */
  62:.\Generated_Source\PSoC5/Timer_Infrared.c **** 
  63:.\Generated_Source\PSoC5/Timer_Infrared.c ****         /* Check if One Shot mode is enabled i.e. RunMode !=0*/
  64:.\Generated_Source\PSoC5/Timer_Infrared.c ****         #if (Timer_Infrared_RunModeUsed != 0x0u)
  65:.\Generated_Source\PSoC5/Timer_Infrared.c ****             /* Set 3rd bit of Control register to enable one shot mode */
  66:.\Generated_Source\PSoC5/Timer_Infrared.c ****             Timer_Infrared_CONTROL |= 0x04u;
  67:.\Generated_Source\PSoC5/Timer_Infrared.c ****         #endif /* One Shot enabled only when RunModeUsed is not Continuous*/
  68:.\Generated_Source\PSoC5/Timer_Infrared.c **** 
  69:.\Generated_Source\PSoC5/Timer_Infrared.c ****         #if (Timer_Infrared_RunModeUsed == 2)
  70:.\Generated_Source\PSoC5/Timer_Infrared.c ****             #if (CY_PSOC5A)
  71:.\Generated_Source\PSoC5/Timer_Infrared.c ****                 /* Set last 2 bits of control2 register if one shot(halt on
  72:.\Generated_Source\PSoC5/Timer_Infrared.c ****                 interrupt) is enabled*/
  73:.\Generated_Source\PSoC5/Timer_Infrared.c ****                 Timer_Infrared_CONTROL2 |= 0x03u;
  74:.\Generated_Source\PSoC5/Timer_Infrared.c ****             #endif /* Set One-Shot Halt on Interrupt bit in CONTROL2 for PSoC5A */
  75:.\Generated_Source\PSoC5/Timer_Infrared.c **** 
  76:.\Generated_Source\PSoC5/Timer_Infrared.c ****             #if (CY_PSOC3 || CY_PSOC5LP)
  77:.\Generated_Source\PSoC5/Timer_Infrared.c ****                 /* Set last 2 bits of control3 register if one shot(halt on
  78:.\Generated_Source\PSoC5/Timer_Infrared.c ****                 interrupt) is enabled*/
  79:.\Generated_Source\PSoC5/Timer_Infrared.c ****                 Timer_Infrared_CONTROL3 |= 0x03u;
  80:.\Generated_Source\PSoC5/Timer_Infrared.c ****             #endif /* Set One-Shot Halt on Interrupt bit in CONTROL3 for PSoC3 or PSoC5LP */
  81:.\Generated_Source\PSoC5/Timer_Infrared.c **** 
  82:.\Generated_Source\PSoC5/Timer_Infrared.c ****         #endif /* Remove section if One Shot Halt on Interrupt is not enabled */
  83:.\Generated_Source\PSoC5/Timer_Infrared.c **** 
  84:.\Generated_Source\PSoC5/Timer_Infrared.c ****         #if (Timer_Infrared_UsingHWEnable != 0)
  85:.\Generated_Source\PSoC5/Timer_Infrared.c ****             #if (CY_PSOC5A)
  86:.\Generated_Source\PSoC5/Timer_Infrared.c ****                 /* Set the default Run Mode of the Timer to Continuous */
  87:.\Generated_Source\PSoC5/Timer_Infrared.c ****                 Timer_Infrared_CONTROL2 |= Timer_Infrared_CTRL_MODE_PULSEWIDTH;
  88:.\Generated_Source\PSoC5/Timer_Infrared.c ****             #endif /* Set Continuous Run Mode in CONTROL2 for PSoC5A */
  89:.\Generated_Source\PSoC5/Timer_Infrared.c **** 
  90:.\Generated_Source\PSoC5/Timer_Infrared.c ****             #if (CY_PSOC3 || CY_PSOC5LP)
  91:.\Generated_Source\PSoC5/Timer_Infrared.c ****                 /* Clear and Set ROD and COD bits of CFG2 register */
  92:.\Generated_Source\PSoC5/Timer_Infrared.c ****                 Timer_Infrared_CONTROL3 &= ~Timer_Infrared_CTRL_RCOD_MASK;
  93:.\Generated_Source\PSoC5/Timer_Infrared.c ****                 Timer_Infrared_CONTROL3 |= Timer_Infrared_CTRL_RCOD;
  94:.\Generated_Source\PSoC5/Timer_Infrared.c **** 
  95:.\Generated_Source\PSoC5/Timer_Infrared.c ****                 /* Clear and Enable the HW enable bit in CFG2 register */
  96:.\Generated_Source\PSoC5/Timer_Infrared.c ****                 Timer_Infrared_CONTROL3 &= ~Timer_Infrared_CTRL_ENBL_MASK;
  97:.\Generated_Source\PSoC5/Timer_Infrared.c ****                 Timer_Infrared_CONTROL3 |= Timer_Infrared_CTRL_ENBL;
  98:.\Generated_Source\PSoC5/Timer_Infrared.c **** 
  99:.\Generated_Source\PSoC5/Timer_Infrared.c ****                 /* Set the default Run Mode of the Timer to Continuous */
 100:.\Generated_Source\PSoC5/Timer_Infrared.c ****                 Timer_Infrared_CONTROL3 |= Timer_Infrared_CTRL_MODE_CONTINUOUS;
 101:.\Generated_Source\PSoC5/Timer_Infrared.c ****             #endif /* Set Continuous Run Mode in CONTROL3 for PSoC3ES3 or PSoC5A */
 102:.\Generated_Source\PSoC5/Timer_Infrared.c **** 
 103:.\Generated_Source\PSoC5/Timer_Infrared.c ****         #endif /* Configure Run Mode with hardware enable */
 104:.\Generated_Source\PSoC5/Timer_Infrared.c **** 
 105:.\Generated_Source\PSoC5/Timer_Infrared.c ****         /* Clear and Set SYNCTC and SYNCCMP bits of RT1 register */
 106:.\Generated_Source\PSoC5/Timer_Infrared.c ****         Timer_Infrared_RT1 &= ~Timer_Infrared_RT1_MASK;
 107:.\Generated_Source\PSoC5/Timer_Infrared.c ****         Timer_Infrared_RT1 |= Timer_Infrared_SYNC;
 108:.\Generated_Source\PSoC5/Timer_Infrared.c **** 
 109:.\Generated_Source\PSoC5/Timer_Infrared.c ****         /*Enable DSI Sync all all inputs of the Timer*/
 110:.\Generated_Source\PSoC5/Timer_Infrared.c ****         Timer_Infrared_RT1 &= ~(Timer_Infrared_SYNCDSI_MASK);
 111:.\Generated_Source\PSoC5/Timer_Infrared.c ****         Timer_Infrared_RT1 |= Timer_Infrared_SYNCDSI_EN;
 112:.\Generated_Source\PSoC5/Timer_Infrared.c **** 
 113:.\Generated_Source\PSoC5/Timer_Infrared.c ****         /* Set the IRQ to use the status register interrupts */
 114:.\Generated_Source\PSoC5/Timer_Infrared.c ****         Timer_Infrared_CONTROL2 |= Timer_Infrared_CTRL2_IRQ_SEL;
 115:.\Generated_Source\PSoC5/Timer_Infrared.c ****     #endif /* Configuring registers of fixed function implementation */
ARM GAS  C:\Users\dwguo\AppData\Local\Temp\ccNFeUnw.s 			page 4


 116:.\Generated_Source\PSoC5/Timer_Infrared.c **** 
 117:.\Generated_Source\PSoC5/Timer_Infrared.c ****     /* Set Initial values from Configuration */
 118:.\Generated_Source\PSoC5/Timer_Infrared.c ****     Timer_Infrared_WritePeriod(Timer_Infrared_INIT_PERIOD);
  53              		.loc 1 118 0
  54 0006 6FF07F40 		mvn	r0, #-16777216
  55 000a FFF7FEFF 		bl	Timer_Infrared_WritePeriod
 119:.\Generated_Source\PSoC5/Timer_Infrared.c ****     Timer_Infrared_WriteCounter(Timer_Infrared_INIT_PERIOD);
  56              		.loc 1 119 0
  57 000e 6FF07F40 		mvn	r0, #-16777216
  58 0012 FFF7FEFF 		bl	Timer_Infrared_WriteCounter
 120:.\Generated_Source\PSoC5/Timer_Infrared.c **** 
 121:.\Generated_Source\PSoC5/Timer_Infrared.c ****     #if (Timer_Infrared_UsingHWCaptureCounter)/* Capture counter is enabled */
 122:.\Generated_Source\PSoC5/Timer_Infrared.c ****         Timer_Infrared_CAPTURE_COUNT_CTRL |= Timer_Infrared_CNTR_ENABLE;
 123:.\Generated_Source\PSoC5/Timer_Infrared.c ****         Timer_Infrared_SetCaptureCount(Timer_Infrared_INIT_CAPTURE_COUNT);
 124:.\Generated_Source\PSoC5/Timer_Infrared.c ****     #endif /* Configure capture counter value */
 125:.\Generated_Source\PSoC5/Timer_Infrared.c **** 
 126:.\Generated_Source\PSoC5/Timer_Infrared.c ****     #if (!Timer_Infrared_UsingFixedFunction)
 127:.\Generated_Source\PSoC5/Timer_Infrared.c ****         #if (Timer_Infrared_SoftwareCaptureMode)
 128:.\Generated_Source\PSoC5/Timer_Infrared.c ****             Timer_Infrared_SetCaptureMode(Timer_Infrared_INIT_CAPTURE_MODE);
 129:.\Generated_Source\PSoC5/Timer_Infrared.c ****         #endif /* Set Capture Mode for UDB implementation if capture mode is software controlled */
 130:.\Generated_Source\PSoC5/Timer_Infrared.c **** 
 131:.\Generated_Source\PSoC5/Timer_Infrared.c ****         #if (Timer_Infrared_SoftwareTriggerMode)
 132:.\Generated_Source\PSoC5/Timer_Infrared.c ****             if (!(Timer_Infrared_CONTROL & Timer_Infrared__B_TIMER__TM_SOFTWARE))
 133:.\Generated_Source\PSoC5/Timer_Infrared.c ****             {
 134:.\Generated_Source\PSoC5/Timer_Infrared.c ****                 Timer_Infrared_SetTriggerMode(Timer_Infrared_INIT_TRIGGER_MODE);
 135:.\Generated_Source\PSoC5/Timer_Infrared.c ****             }
 136:.\Generated_Source\PSoC5/Timer_Infrared.c ****         #endif /* Set trigger mode for UDB Implementation if trigger mode is software controlled */
 137:.\Generated_Source\PSoC5/Timer_Infrared.c **** 
 138:.\Generated_Source\PSoC5/Timer_Infrared.c ****         /* CyEnterCriticalRegion and CyExitCriticalRegion are used to mark following region critica
 139:.\Generated_Source\PSoC5/Timer_Infrared.c ****         /* Enter Critical Region*/
 140:.\Generated_Source\PSoC5/Timer_Infrared.c ****         Timer_Infrared_interruptState = CyEnterCriticalSection();
  59              		.loc 1 140 0
  60 0016 FFF7FEFF 		bl	CyEnterCriticalSection
  61 001a 0346     		mov	r3, r0
  62 001c FB71     		strb	r3, [r7, #7]
 141:.\Generated_Source\PSoC5/Timer_Infrared.c **** 
 142:.\Generated_Source\PSoC5/Timer_Infrared.c ****         /* Use the interrupt output of the status register for IRQ output */
 143:.\Generated_Source\PSoC5/Timer_Infrared.c ****         Timer_Infrared_STATUS_AUX_CTRL |= Timer_Infrared_STATUS_ACTL_INT_EN_MASK;
  63              		.loc 1 143 0
  64 001e 46F29653 		movw	r3, #:lower16:1073767830
  65 0022 C4F20003 		movt	r3, #:upper16:1073767830
  66 0026 46F29652 		movw	r2, #:lower16:1073767830
  67 002a C4F20002 		movt	r2, #:upper16:1073767830
  68 002e 1278     		ldrb	r2, [r2, #0]
  69 0030 D2B2     		uxtb	r2, r2
  70 0032 42F01002 		orr	r2, r2, #16
  71 0036 D2B2     		uxtb	r2, r2
  72 0038 1A70     		strb	r2, [r3, #0]
 144:.\Generated_Source\PSoC5/Timer_Infrared.c **** 
 145:.\Generated_Source\PSoC5/Timer_Infrared.c ****         /* Exit Critical Region*/
 146:.\Generated_Source\PSoC5/Timer_Infrared.c ****         CyExitCriticalSection(Timer_Infrared_interruptState);
  73              		.loc 1 146 0
  74 003a FB79     		ldrb	r3, [r7, #7]	@ zero_extendqisi2
  75 003c 1846     		mov	r0, r3
  76 003e FFF7FEFF 		bl	CyExitCriticalSection
 147:.\Generated_Source\PSoC5/Timer_Infrared.c **** 
 148:.\Generated_Source\PSoC5/Timer_Infrared.c ****         #if (Timer_Infrared_EnableTriggerMode)
ARM GAS  C:\Users\dwguo\AppData\Local\Temp\ccNFeUnw.s 			page 5


 149:.\Generated_Source\PSoC5/Timer_Infrared.c ****             Timer_Infrared_EnableTrigger();
 150:.\Generated_Source\PSoC5/Timer_Infrared.c ****         #endif /* Set Trigger enable bit for UDB implementation in the control register*/
 151:.\Generated_Source\PSoC5/Timer_Infrared.c **** 
 152:.\Generated_Source\PSoC5/Timer_Infrared.c ****         #if (Timer_Infrared_InterruptOnCaptureCount)
 153:.\Generated_Source\PSoC5/Timer_Infrared.c ****              #if (!Timer_Infrared_ControlRegRemoved)
 154:.\Generated_Source\PSoC5/Timer_Infrared.c ****                 Timer_Infrared_SetInterruptCount(Timer_Infrared_INIT_INT_CAPTURE_COUNT);
  77              		.loc 1 154 0
  78 0042 4FF00000 		mov	r0, #0
  79 0046 FFF7FEFF 		bl	Timer_Infrared_SetInterruptCount
 155:.\Generated_Source\PSoC5/Timer_Infrared.c ****             #endif /* Set interrupt count in control register if control register is not removed */
 156:.\Generated_Source\PSoC5/Timer_Infrared.c ****         #endif /*Set interrupt count in UDB implementation if interrupt count feature is checked.*/
 157:.\Generated_Source\PSoC5/Timer_Infrared.c **** 
 158:.\Generated_Source\PSoC5/Timer_Infrared.c ****         Timer_Infrared_ClearFIFO();
  80              		.loc 1 158 0
  81 004a FFF7FEFF 		bl	Timer_Infrared_ClearFIFO
 159:.\Generated_Source\PSoC5/Timer_Infrared.c ****     #endif /* Configure additional features of UDB implementation */
 160:.\Generated_Source\PSoC5/Timer_Infrared.c **** 
 161:.\Generated_Source\PSoC5/Timer_Infrared.c ****     Timer_Infrared_SetInterruptMode(Timer_Infrared_INIT_INTERRUPT_MODE);
  82              		.loc 1 161 0
  83 004e 4FF00200 		mov	r0, #2
  84 0052 FFF7FEFF 		bl	Timer_Infrared_SetInterruptMode
 162:.\Generated_Source\PSoC5/Timer_Infrared.c **** }
  85              		.loc 1 162 0
  86 0056 07F10807 		add	r7, r7, #8
  87 005a BD46     		mov	sp, r7
  88 005c 80BD     		pop	{r7, pc}
  89              		.cfi_endproc
  90              	.LFE0:
  91              		.size	Timer_Infrared_Init, .-Timer_Infrared_Init
  92 005e 00BF     		.section	.text.Timer_Infrared_Enable,"ax",%progbits
  93              		.align	2
  94              		.global	Timer_Infrared_Enable
  95              		.thumb
  96              		.thumb_func
  97              		.type	Timer_Infrared_Enable, %function
  98              	Timer_Infrared_Enable:
  99              	.LFB1:
 163:.\Generated_Source\PSoC5/Timer_Infrared.c **** 
 164:.\Generated_Source\PSoC5/Timer_Infrared.c **** 
 165:.\Generated_Source\PSoC5/Timer_Infrared.c **** /*******************************************************************************
 166:.\Generated_Source\PSoC5/Timer_Infrared.c **** * Function Name: Timer_Infrared_Enable
 167:.\Generated_Source\PSoC5/Timer_Infrared.c **** ********************************************************************************
 168:.\Generated_Source\PSoC5/Timer_Infrared.c **** *
 169:.\Generated_Source\PSoC5/Timer_Infrared.c **** * Summary:
 170:.\Generated_Source\PSoC5/Timer_Infrared.c **** *  Enable the Timer
 171:.\Generated_Source\PSoC5/Timer_Infrared.c **** *
 172:.\Generated_Source\PSoC5/Timer_Infrared.c **** * Parameters:
 173:.\Generated_Source\PSoC5/Timer_Infrared.c **** *  void
 174:.\Generated_Source\PSoC5/Timer_Infrared.c **** *
 175:.\Generated_Source\PSoC5/Timer_Infrared.c **** * Return:
 176:.\Generated_Source\PSoC5/Timer_Infrared.c **** *  void
 177:.\Generated_Source\PSoC5/Timer_Infrared.c **** *
 178:.\Generated_Source\PSoC5/Timer_Infrared.c **** *******************************************************************************/
 179:.\Generated_Source\PSoC5/Timer_Infrared.c **** void Timer_Infrared_Enable(void) 
 180:.\Generated_Source\PSoC5/Timer_Infrared.c **** {
 100              		.loc 1 180 0
 101              		.cfi_startproc
ARM GAS  C:\Users\dwguo\AppData\Local\Temp\ccNFeUnw.s 			page 6


 102              		@ args = 0, pretend = 0, frame = 0
 103              		@ frame_needed = 1, uses_anonymous_args = 0
 104              		@ link register save eliminated.
 105 0000 80B4     		push	{r7}
 106              	.LCFI3:
 107              		.cfi_def_cfa_offset 4
 108 0002 00AF     		add	r7, sp, #0
 109              		.cfi_offset 7, -4
 110              	.LCFI4:
 111              		.cfi_def_cfa_register 7
 181:.\Generated_Source\PSoC5/Timer_Infrared.c ****     /* Globally Enable the Fixed Function Block chosen */
 182:.\Generated_Source\PSoC5/Timer_Infrared.c ****     #if (Timer_Infrared_UsingFixedFunction)
 183:.\Generated_Source\PSoC5/Timer_Infrared.c ****         Timer_Infrared_GLOBAL_ENABLE |= Timer_Infrared_BLOCK_EN_MASK;
 184:.\Generated_Source\PSoC5/Timer_Infrared.c ****         Timer_Infrared_GLOBAL_STBY_ENABLE |= Timer_Infrared_BLOCK_STBY_EN_MASK;
 185:.\Generated_Source\PSoC5/Timer_Infrared.c ****     #endif /* Set Enable bit for enabling Fixed function timer*/
 186:.\Generated_Source\PSoC5/Timer_Infrared.c **** 
 187:.\Generated_Source\PSoC5/Timer_Infrared.c ****     /* Remove assignment if control register is removed */
 188:.\Generated_Source\PSoC5/Timer_Infrared.c ****     #if (!Timer_Infrared_ControlRegRemoved || Timer_Infrared_UsingFixedFunction)
 189:.\Generated_Source\PSoC5/Timer_Infrared.c ****         Timer_Infrared_CONTROL |= Timer_Infrared_CTRL_ENABLE;
 112              		.loc 1 189 0
 113 0004 46F27453 		movw	r3, #:lower16:1073767796
 114 0008 C4F20003 		movt	r3, #:upper16:1073767796
 115 000c 46F27452 		movw	r2, #:lower16:1073767796
 116 0010 C4F20002 		movt	r2, #:upper16:1073767796
 117 0014 1278     		ldrb	r2, [r2, #0]
 118 0016 D2B2     		uxtb	r2, r2
 119 0018 6FEA4262 		mvn	r2, r2, lsl #25
 120 001c 6FEA5262 		mvn	r2, r2, lsr #25
 121 0020 D2B2     		uxtb	r2, r2
 122 0022 1A70     		strb	r2, [r3, #0]
 190:.\Generated_Source\PSoC5/Timer_Infrared.c ****     #endif /* Remove assignment if control register is removed */
 191:.\Generated_Source\PSoC5/Timer_Infrared.c **** }
 123              		.loc 1 191 0
 124 0024 BD46     		mov	sp, r7
 125 0026 80BC     		pop	{r7}
 126 0028 7047     		bx	lr
 127              		.cfi_endproc
 128              	.LFE1:
 129              		.size	Timer_Infrared_Enable, .-Timer_Infrared_Enable
 130 002a 00BF     		.section	.text.Timer_Infrared_Start,"ax",%progbits
 131              		.align	2
 132              		.global	Timer_Infrared_Start
 133              		.thumb
 134              		.thumb_func
 135              		.type	Timer_Infrared_Start, %function
 136              	Timer_Infrared_Start:
 137              	.LFB2:
 192:.\Generated_Source\PSoC5/Timer_Infrared.c **** 
 193:.\Generated_Source\PSoC5/Timer_Infrared.c **** 
 194:.\Generated_Source\PSoC5/Timer_Infrared.c **** /*******************************************************************************
 195:.\Generated_Source\PSoC5/Timer_Infrared.c **** * Function Name: Timer_Infrared_Start
 196:.\Generated_Source\PSoC5/Timer_Infrared.c **** ********************************************************************************
 197:.\Generated_Source\PSoC5/Timer_Infrared.c **** *
 198:.\Generated_Source\PSoC5/Timer_Infrared.c **** * Summary:
 199:.\Generated_Source\PSoC5/Timer_Infrared.c **** *  The start function initializes the timer with the default values, the
 200:.\Generated_Source\PSoC5/Timer_Infrared.c **** *  enables the timerto begin counting.  It does not enable interrupts,
 201:.\Generated_Source\PSoC5/Timer_Infrared.c **** *  the EnableInt command should be called if interrupt generation is required.
ARM GAS  C:\Users\dwguo\AppData\Local\Temp\ccNFeUnw.s 			page 7


 202:.\Generated_Source\PSoC5/Timer_Infrared.c **** *
 203:.\Generated_Source\PSoC5/Timer_Infrared.c **** * Parameters:
 204:.\Generated_Source\PSoC5/Timer_Infrared.c **** *  void
 205:.\Generated_Source\PSoC5/Timer_Infrared.c **** *
 206:.\Generated_Source\PSoC5/Timer_Infrared.c **** * Return:
 207:.\Generated_Source\PSoC5/Timer_Infrared.c **** *  void
 208:.\Generated_Source\PSoC5/Timer_Infrared.c **** *
 209:.\Generated_Source\PSoC5/Timer_Infrared.c **** * Global variables:
 210:.\Generated_Source\PSoC5/Timer_Infrared.c **** *  Timer_Infrared_initVar: Is modified when this function is called for the
 211:.\Generated_Source\PSoC5/Timer_Infrared.c **** *   first time. Is used to ensure that initialization happens only once.
 212:.\Generated_Source\PSoC5/Timer_Infrared.c **** *
 213:.\Generated_Source\PSoC5/Timer_Infrared.c **** *******************************************************************************/
 214:.\Generated_Source\PSoC5/Timer_Infrared.c **** void Timer_Infrared_Start(void) 
 215:.\Generated_Source\PSoC5/Timer_Infrared.c **** {
 138              		.loc 1 215 0
 139              		.cfi_startproc
 140              		@ args = 0, pretend = 0, frame = 0
 141              		@ frame_needed = 1, uses_anonymous_args = 0
 142 0000 80B5     		push	{r7, lr}
 143              	.LCFI5:
 144              		.cfi_def_cfa_offset 8
 145 0002 00AF     		add	r7, sp, #0
 146              		.cfi_offset 14, -4
 147              		.cfi_offset 7, -8
 148              	.LCFI6:
 149              		.cfi_def_cfa_register 7
 216:.\Generated_Source\PSoC5/Timer_Infrared.c ****     if(Timer_Infrared_initVar == 0u)
 150              		.loc 1 216 0
 151 0004 40F20003 		movw	r3, #:lower16:Timer_Infrared_initVar
 152 0008 C0F20003 		movt	r3, #:upper16:Timer_Infrared_initVar
 153 000c 1B78     		ldrb	r3, [r3, #0]	@ zero_extendqisi2
 154 000e 002B     		cmp	r3, #0
 155 0010 08D1     		bne	.L6
 217:.\Generated_Source\PSoC5/Timer_Infrared.c ****     {
 218:.\Generated_Source\PSoC5/Timer_Infrared.c ****         Timer_Infrared_Init();
 156              		.loc 1 218 0
 157 0012 FFF7FEFF 		bl	Timer_Infrared_Init
 219:.\Generated_Source\PSoC5/Timer_Infrared.c **** 
 220:.\Generated_Source\PSoC5/Timer_Infrared.c ****         Timer_Infrared_initVar = 1u;   /* Clear this bit for Initialization */
 158              		.loc 1 220 0
 159 0016 40F20003 		movw	r3, #:lower16:Timer_Infrared_initVar
 160 001a C0F20003 		movt	r3, #:upper16:Timer_Infrared_initVar
 161 001e 4FF00102 		mov	r2, #1
 162 0022 1A70     		strb	r2, [r3, #0]
 163              	.L6:
 221:.\Generated_Source\PSoC5/Timer_Infrared.c ****     }
 222:.\Generated_Source\PSoC5/Timer_Infrared.c **** 
 223:.\Generated_Source\PSoC5/Timer_Infrared.c ****     /* Enable the Timer */
 224:.\Generated_Source\PSoC5/Timer_Infrared.c ****     Timer_Infrared_Enable();
 164              		.loc 1 224 0
 165 0024 FFF7FEFF 		bl	Timer_Infrared_Enable
 225:.\Generated_Source\PSoC5/Timer_Infrared.c **** }
 166              		.loc 1 225 0
 167 0028 80BD     		pop	{r7, pc}
 168              		.cfi_endproc
 169              	.LFE2:
 170              		.size	Timer_Infrared_Start, .-Timer_Infrared_Start
ARM GAS  C:\Users\dwguo\AppData\Local\Temp\ccNFeUnw.s 			page 8


 171 002a 00BF     		.section	.text.Timer_Infrared_Stop,"ax",%progbits
 172              		.align	2
 173              		.global	Timer_Infrared_Stop
 174              		.thumb
 175              		.thumb_func
 176              		.type	Timer_Infrared_Stop, %function
 177              	Timer_Infrared_Stop:
 178              	.LFB3:
 226:.\Generated_Source\PSoC5/Timer_Infrared.c **** 
 227:.\Generated_Source\PSoC5/Timer_Infrared.c **** 
 228:.\Generated_Source\PSoC5/Timer_Infrared.c **** /*******************************************************************************
 229:.\Generated_Source\PSoC5/Timer_Infrared.c **** * Function Name: Timer_Infrared_Stop
 230:.\Generated_Source\PSoC5/Timer_Infrared.c **** ********************************************************************************
 231:.\Generated_Source\PSoC5/Timer_Infrared.c **** *
 232:.\Generated_Source\PSoC5/Timer_Infrared.c **** * Summary:
 233:.\Generated_Source\PSoC5/Timer_Infrared.c **** *  The stop function halts the timer, but does not change any modes or disable
 234:.\Generated_Source\PSoC5/Timer_Infrared.c **** *  interrupts.
 235:.\Generated_Source\PSoC5/Timer_Infrared.c **** *
 236:.\Generated_Source\PSoC5/Timer_Infrared.c **** * Parameters:
 237:.\Generated_Source\PSoC5/Timer_Infrared.c **** *  void
 238:.\Generated_Source\PSoC5/Timer_Infrared.c **** *
 239:.\Generated_Source\PSoC5/Timer_Infrared.c **** * Return:
 240:.\Generated_Source\PSoC5/Timer_Infrared.c **** *  void
 241:.\Generated_Source\PSoC5/Timer_Infrared.c **** *
 242:.\Generated_Source\PSoC5/Timer_Infrared.c **** * Side Effects: If the Enable mode is set to Hardware only then this function
 243:.\Generated_Source\PSoC5/Timer_Infrared.c **** *               has no effect on the operation of the timer.
 244:.\Generated_Source\PSoC5/Timer_Infrared.c **** *
 245:.\Generated_Source\PSoC5/Timer_Infrared.c **** *******************************************************************************/
 246:.\Generated_Source\PSoC5/Timer_Infrared.c **** void Timer_Infrared_Stop(void) 
 247:.\Generated_Source\PSoC5/Timer_Infrared.c **** {
 179              		.loc 1 247 0
 180              		.cfi_startproc
 181              		@ args = 0, pretend = 0, frame = 0
 182              		@ frame_needed = 1, uses_anonymous_args = 0
 183              		@ link register save eliminated.
 184 0000 80B4     		push	{r7}
 185              	.LCFI7:
 186              		.cfi_def_cfa_offset 4
 187 0002 00AF     		add	r7, sp, #0
 188              		.cfi_offset 7, -4
 189              	.LCFI8:
 190              		.cfi_def_cfa_register 7
 248:.\Generated_Source\PSoC5/Timer_Infrared.c ****     /* Disable Timer */
 249:.\Generated_Source\PSoC5/Timer_Infrared.c ****     #if(!Timer_Infrared_ControlRegRemoved || Timer_Infrared_UsingFixedFunction)
 250:.\Generated_Source\PSoC5/Timer_Infrared.c ****         Timer_Infrared_CONTROL &= ~Timer_Infrared_CTRL_ENABLE;
 191              		.loc 1 250 0
 192 0004 46F27453 		movw	r3, #:lower16:1073767796
 193 0008 C4F20003 		movt	r3, #:upper16:1073767796
 194 000c 46F27452 		movw	r2, #:lower16:1073767796
 195 0010 C4F20002 		movt	r2, #:upper16:1073767796
 196 0014 1278     		ldrb	r2, [r2, #0]
 197 0016 D2B2     		uxtb	r2, r2
 198 0018 02F07F02 		and	r2, r2, #127
 199 001c 1A70     		strb	r2, [r3, #0]
 251:.\Generated_Source\PSoC5/Timer_Infrared.c ****     #endif /* Remove assignment if control register is removed */
 252:.\Generated_Source\PSoC5/Timer_Infrared.c **** 
 253:.\Generated_Source\PSoC5/Timer_Infrared.c ****     /* Globally disable the Fixed Function Block chosen */
ARM GAS  C:\Users\dwguo\AppData\Local\Temp\ccNFeUnw.s 			page 9


 254:.\Generated_Source\PSoC5/Timer_Infrared.c ****     #if (Timer_Infrared_UsingFixedFunction)
 255:.\Generated_Source\PSoC5/Timer_Infrared.c ****         Timer_Infrared_GLOBAL_ENABLE &= ~Timer_Infrared_BLOCK_EN_MASK;
 256:.\Generated_Source\PSoC5/Timer_Infrared.c ****         Timer_Infrared_GLOBAL_STBY_ENABLE &= ~Timer_Infrared_BLOCK_STBY_EN_MASK;
 257:.\Generated_Source\PSoC5/Timer_Infrared.c ****     #endif /* Disable global enable for the Timer Fixed function block to stop the Timer*/
 258:.\Generated_Source\PSoC5/Timer_Infrared.c **** }
 200              		.loc 1 258 0
 201 001e BD46     		mov	sp, r7
 202 0020 80BC     		pop	{r7}
 203 0022 7047     		bx	lr
 204              		.cfi_endproc
 205              	.LFE3:
 206              		.size	Timer_Infrared_Stop, .-Timer_Infrared_Stop
 207              		.section	.text.Timer_Infrared_SetInterruptMode,"ax",%progbits
 208              		.align	2
 209              		.global	Timer_Infrared_SetInterruptMode
 210              		.thumb
 211              		.thumb_func
 212              		.type	Timer_Infrared_SetInterruptMode, %function
 213              	Timer_Infrared_SetInterruptMode:
 214              	.LFB4:
 259:.\Generated_Source\PSoC5/Timer_Infrared.c **** 
 260:.\Generated_Source\PSoC5/Timer_Infrared.c **** 
 261:.\Generated_Source\PSoC5/Timer_Infrared.c **** /*******************************************************************************
 262:.\Generated_Source\PSoC5/Timer_Infrared.c **** * Function Name: Timer_Infrared_SetInterruptMode
 263:.\Generated_Source\PSoC5/Timer_Infrared.c **** ********************************************************************************
 264:.\Generated_Source\PSoC5/Timer_Infrared.c **** *
 265:.\Generated_Source\PSoC5/Timer_Infrared.c **** * Summary:
 266:.\Generated_Source\PSoC5/Timer_Infrared.c **** *  This function selects which of the interrupt inputs may cause an interrupt.
 267:.\Generated_Source\PSoC5/Timer_Infrared.c **** *  The twosources are caputure and terminal.  One, both or neither may
 268:.\Generated_Source\PSoC5/Timer_Infrared.c **** *  be selected.
 269:.\Generated_Source\PSoC5/Timer_Infrared.c **** *
 270:.\Generated_Source\PSoC5/Timer_Infrared.c **** * Parameters:
 271:.\Generated_Source\PSoC5/Timer_Infrared.c **** *  interruptMode:   This parameter is used to enable interrups on either/or
 272:.\Generated_Source\PSoC5/Timer_Infrared.c **** *                   terminal count or capture.
 273:.\Generated_Source\PSoC5/Timer_Infrared.c **** *
 274:.\Generated_Source\PSoC5/Timer_Infrared.c **** * Return:
 275:.\Generated_Source\PSoC5/Timer_Infrared.c **** *  void
 276:.\Generated_Source\PSoC5/Timer_Infrared.c **** *
 277:.\Generated_Source\PSoC5/Timer_Infrared.c **** *******************************************************************************/
 278:.\Generated_Source\PSoC5/Timer_Infrared.c **** void Timer_Infrared_SetInterruptMode(uint8 interruptMode) 
 279:.\Generated_Source\PSoC5/Timer_Infrared.c **** {
 215              		.loc 1 279 0
 216              		.cfi_startproc
 217              		@ args = 0, pretend = 0, frame = 8
 218              		@ frame_needed = 1, uses_anonymous_args = 0
 219              		@ link register save eliminated.
 220 0000 80B4     		push	{r7}
 221              	.LCFI9:
 222              		.cfi_def_cfa_offset 4
 223 0002 83B0     		sub	sp, sp, #12
 224              	.LCFI10:
 225              		.cfi_def_cfa_offset 16
 226 0004 00AF     		add	r7, sp, #0
 227              		.cfi_offset 7, -4
 228              	.LCFI11:
 229              		.cfi_def_cfa_register 7
 230 0006 0346     		mov	r3, r0
ARM GAS  C:\Users\dwguo\AppData\Local\Temp\ccNFeUnw.s 			page 10


 231 0008 FB71     		strb	r3, [r7, #7]
 280:.\Generated_Source\PSoC5/Timer_Infrared.c ****     Timer_Infrared_STATUS_MASK = interruptMode;
 232              		.loc 1 280 0
 233 000a 46F28653 		movw	r3, #:lower16:1073767814
 234 000e C4F20003 		movt	r3, #:upper16:1073767814
 235 0012 FA79     		ldrb	r2, [r7, #7]
 236 0014 1A70     		strb	r2, [r3, #0]
 281:.\Generated_Source\PSoC5/Timer_Infrared.c **** }
 237              		.loc 1 281 0
 238 0016 07F10C07 		add	r7, r7, #12
 239 001a BD46     		mov	sp, r7
 240 001c 80BC     		pop	{r7}
 241 001e 7047     		bx	lr
 242              		.cfi_endproc
 243              	.LFE4:
 244              		.size	Timer_Infrared_SetInterruptMode, .-Timer_Infrared_SetInterruptMode
 245              		.section	.text.Timer_Infrared_SoftwareCapture,"ax",%progbits
 246              		.align	2
 247              		.global	Timer_Infrared_SoftwareCapture
 248              		.thumb
 249              		.thumb_func
 250              		.type	Timer_Infrared_SoftwareCapture, %function
 251              	Timer_Infrared_SoftwareCapture:
 252              	.LFB5:
 282:.\Generated_Source\PSoC5/Timer_Infrared.c **** 
 283:.\Generated_Source\PSoC5/Timer_Infrared.c **** 
 284:.\Generated_Source\PSoC5/Timer_Infrared.c **** /*******************************************************************************
 285:.\Generated_Source\PSoC5/Timer_Infrared.c **** * Function Name: Timer_Infrared_SoftwareCapture
 286:.\Generated_Source\PSoC5/Timer_Infrared.c **** ********************************************************************************
 287:.\Generated_Source\PSoC5/Timer_Infrared.c **** *
 288:.\Generated_Source\PSoC5/Timer_Infrared.c **** * Summary:
 289:.\Generated_Source\PSoC5/Timer_Infrared.c **** *  This function forces a capture independent of the capture signal.
 290:.\Generated_Source\PSoC5/Timer_Infrared.c **** *
 291:.\Generated_Source\PSoC5/Timer_Infrared.c **** * Parameters:
 292:.\Generated_Source\PSoC5/Timer_Infrared.c **** *  void
 293:.\Generated_Source\PSoC5/Timer_Infrared.c **** *
 294:.\Generated_Source\PSoC5/Timer_Infrared.c **** * Return:
 295:.\Generated_Source\PSoC5/Timer_Infrared.c **** *  void
 296:.\Generated_Source\PSoC5/Timer_Infrared.c **** *
 297:.\Generated_Source\PSoC5/Timer_Infrared.c **** * Side Effects:
 298:.\Generated_Source\PSoC5/Timer_Infrared.c **** *  An existing hardware capture could be overwritten.
 299:.\Generated_Source\PSoC5/Timer_Infrared.c **** *
 300:.\Generated_Source\PSoC5/Timer_Infrared.c **** *******************************************************************************/
 301:.\Generated_Source\PSoC5/Timer_Infrared.c **** void Timer_Infrared_SoftwareCapture(void) 
 302:.\Generated_Source\PSoC5/Timer_Infrared.c **** {
 253              		.loc 1 302 0
 254              		.cfi_startproc
 255              		@ args = 0, pretend = 0, frame = 0
 256              		@ frame_needed = 1, uses_anonymous_args = 0
 257              		@ link register save eliminated.
 258 0000 80B4     		push	{r7}
 259              	.LCFI12:
 260              		.cfi_def_cfa_offset 4
 261 0002 00AF     		add	r7, sp, #0
 262              		.cfi_offset 7, -4
 263              	.LCFI13:
 264              		.cfi_def_cfa_register 7
ARM GAS  C:\Users\dwguo\AppData\Local\Temp\ccNFeUnw.s 			page 11


 303:.\Generated_Source\PSoC5/Timer_Infrared.c ****     /* Generate a software capture by reading the counter register */
 304:.\Generated_Source\PSoC5/Timer_Infrared.c ****     CY_GET_REG8(Timer_Infrared_COUNTER_LSB_PTR);
 265              		.loc 1 304 0
 266 0004 46F20453 		movw	r3, #:lower16:1073767684
 267 0008 C4F20003 		movt	r3, #:upper16:1073767684
 268 000c 1B78     		ldrb	r3, [r3, #0]
 305:.\Generated_Source\PSoC5/Timer_Infrared.c ****     /* Capture Data is now in the FIFO */
 306:.\Generated_Source\PSoC5/Timer_Infrared.c **** }
 269              		.loc 1 306 0
 270 000e BD46     		mov	sp, r7
 271 0010 80BC     		pop	{r7}
 272 0012 7047     		bx	lr
 273              		.cfi_endproc
 274              	.LFE5:
 275              		.size	Timer_Infrared_SoftwareCapture, .-Timer_Infrared_SoftwareCapture
 276              		.section	.text.Timer_Infrared_ReadStatusRegister,"ax",%progbits
 277              		.align	2
 278              		.global	Timer_Infrared_ReadStatusRegister
 279              		.thumb
 280              		.thumb_func
 281              		.type	Timer_Infrared_ReadStatusRegister, %function
 282              	Timer_Infrared_ReadStatusRegister:
 283              	.LFB6:
 307:.\Generated_Source\PSoC5/Timer_Infrared.c **** 
 308:.\Generated_Source\PSoC5/Timer_Infrared.c **** 
 309:.\Generated_Source\PSoC5/Timer_Infrared.c **** /*******************************************************************************
 310:.\Generated_Source\PSoC5/Timer_Infrared.c **** * Function Name: Timer_Infrared_ReadStatusRegister
 311:.\Generated_Source\PSoC5/Timer_Infrared.c **** ********************************************************************************
 312:.\Generated_Source\PSoC5/Timer_Infrared.c **** *
 313:.\Generated_Source\PSoC5/Timer_Infrared.c **** * Summary:
 314:.\Generated_Source\PSoC5/Timer_Infrared.c **** *  Reads the status register and returns it's state. This function should use
 315:.\Generated_Source\PSoC5/Timer_Infrared.c **** *  defined types for the bit-field information as the bits in this register may
 316:.\Generated_Source\PSoC5/Timer_Infrared.c **** *  be permuteable.
 317:.\Generated_Source\PSoC5/Timer_Infrared.c **** *
 318:.\Generated_Source\PSoC5/Timer_Infrared.c **** * Parameters:
 319:.\Generated_Source\PSoC5/Timer_Infrared.c **** *  void
 320:.\Generated_Source\PSoC5/Timer_Infrared.c **** *
 321:.\Generated_Source\PSoC5/Timer_Infrared.c **** * Return:
 322:.\Generated_Source\PSoC5/Timer_Infrared.c **** *  The contents of the status register
 323:.\Generated_Source\PSoC5/Timer_Infrared.c **** *
 324:.\Generated_Source\PSoC5/Timer_Infrared.c **** * Side Effects:
 325:.\Generated_Source\PSoC5/Timer_Infrared.c **** *  Status register bits may be clear on read.
 326:.\Generated_Source\PSoC5/Timer_Infrared.c **** *
 327:.\Generated_Source\PSoC5/Timer_Infrared.c **** *******************************************************************************/
 328:.\Generated_Source\PSoC5/Timer_Infrared.c **** uint8   Timer_Infrared_ReadStatusRegister(void) 
 329:.\Generated_Source\PSoC5/Timer_Infrared.c **** {
 284              		.loc 1 329 0
 285              		.cfi_startproc
 286              		@ args = 0, pretend = 0, frame = 0
 287              		@ frame_needed = 1, uses_anonymous_args = 0
 288              		@ link register save eliminated.
 289 0000 80B4     		push	{r7}
 290              	.LCFI14:
 291              		.cfi_def_cfa_offset 4
 292 0002 00AF     		add	r7, sp, #0
 293              		.cfi_offset 7, -4
 294              	.LCFI15:
ARM GAS  C:\Users\dwguo\AppData\Local\Temp\ccNFeUnw.s 			page 12


 295              		.cfi_def_cfa_register 7
 330:.\Generated_Source\PSoC5/Timer_Infrared.c ****     return Timer_Infrared_STATUS;
 296              		.loc 1 330 0
 297 0004 46F26653 		movw	r3, #:lower16:1073767782
 298 0008 C4F20003 		movt	r3, #:upper16:1073767782
 299 000c 1B78     		ldrb	r3, [r3, #0]
 300 000e DBB2     		uxtb	r3, r3
 331:.\Generated_Source\PSoC5/Timer_Infrared.c **** }
 301              		.loc 1 331 0
 302 0010 1846     		mov	r0, r3
 303 0012 BD46     		mov	sp, r7
 304 0014 80BC     		pop	{r7}
 305 0016 7047     		bx	lr
 306              		.cfi_endproc
 307              	.LFE6:
 308              		.size	Timer_Infrared_ReadStatusRegister, .-Timer_Infrared_ReadStatusRegister
 309              		.section	.text.Timer_Infrared_ReadControlRegister,"ax",%progbits
 310              		.align	2
 311              		.global	Timer_Infrared_ReadControlRegister
 312              		.thumb
 313              		.thumb_func
 314              		.type	Timer_Infrared_ReadControlRegister, %function
 315              	Timer_Infrared_ReadControlRegister:
 316              	.LFB7:
 332:.\Generated_Source\PSoC5/Timer_Infrared.c **** 
 333:.\Generated_Source\PSoC5/Timer_Infrared.c **** 
 334:.\Generated_Source\PSoC5/Timer_Infrared.c **** #if (!Timer_Infrared_ControlRegRemoved) /* Remove API if control register is removed */
 335:.\Generated_Source\PSoC5/Timer_Infrared.c **** 
 336:.\Generated_Source\PSoC5/Timer_Infrared.c **** 
 337:.\Generated_Source\PSoC5/Timer_Infrared.c **** /*******************************************************************************
 338:.\Generated_Source\PSoC5/Timer_Infrared.c **** * Function Name: Timer_Infrared_ReadControlRegister
 339:.\Generated_Source\PSoC5/Timer_Infrared.c **** ********************************************************************************
 340:.\Generated_Source\PSoC5/Timer_Infrared.c **** *
 341:.\Generated_Source\PSoC5/Timer_Infrared.c **** * Summary:
 342:.\Generated_Source\PSoC5/Timer_Infrared.c **** *  Reads the control register and returns it's value.
 343:.\Generated_Source\PSoC5/Timer_Infrared.c **** *
 344:.\Generated_Source\PSoC5/Timer_Infrared.c **** * Parameters:
 345:.\Generated_Source\PSoC5/Timer_Infrared.c **** *  void
 346:.\Generated_Source\PSoC5/Timer_Infrared.c **** *
 347:.\Generated_Source\PSoC5/Timer_Infrared.c **** * Return:
 348:.\Generated_Source\PSoC5/Timer_Infrared.c **** *  The contents of the control register
 349:.\Generated_Source\PSoC5/Timer_Infrared.c **** *
 350:.\Generated_Source\PSoC5/Timer_Infrared.c **** *******************************************************************************/
 351:.\Generated_Source\PSoC5/Timer_Infrared.c **** uint8 Timer_Infrared_ReadControlRegister(void) 
 352:.\Generated_Source\PSoC5/Timer_Infrared.c **** {
 317              		.loc 1 352 0
 318              		.cfi_startproc
 319              		@ args = 0, pretend = 0, frame = 0
 320              		@ frame_needed = 1, uses_anonymous_args = 0
 321              		@ link register save eliminated.
 322 0000 80B4     		push	{r7}
 323              	.LCFI16:
 324              		.cfi_def_cfa_offset 4
 325 0002 00AF     		add	r7, sp, #0
 326              		.cfi_offset 7, -4
 327              	.LCFI17:
 328              		.cfi_def_cfa_register 7
ARM GAS  C:\Users\dwguo\AppData\Local\Temp\ccNFeUnw.s 			page 13


 353:.\Generated_Source\PSoC5/Timer_Infrared.c ****     return Timer_Infrared_CONTROL;
 329              		.loc 1 353 0
 330 0004 46F27453 		movw	r3, #:lower16:1073767796
 331 0008 C4F20003 		movt	r3, #:upper16:1073767796
 332 000c 1B78     		ldrb	r3, [r3, #0]
 333 000e DBB2     		uxtb	r3, r3
 354:.\Generated_Source\PSoC5/Timer_Infrared.c **** }
 334              		.loc 1 354 0
 335 0010 1846     		mov	r0, r3
 336 0012 BD46     		mov	sp, r7
 337 0014 80BC     		pop	{r7}
 338 0016 7047     		bx	lr
 339              		.cfi_endproc
 340              	.LFE7:
 341              		.size	Timer_Infrared_ReadControlRegister, .-Timer_Infrared_ReadControlRegister
 342              		.section	.text.Timer_Infrared_WriteControlRegister,"ax",%progbits
 343              		.align	2
 344              		.global	Timer_Infrared_WriteControlRegister
 345              		.thumb
 346              		.thumb_func
 347              		.type	Timer_Infrared_WriteControlRegister, %function
 348              	Timer_Infrared_WriteControlRegister:
 349              	.LFB8:
 355:.\Generated_Source\PSoC5/Timer_Infrared.c **** 
 356:.\Generated_Source\PSoC5/Timer_Infrared.c **** 
 357:.\Generated_Source\PSoC5/Timer_Infrared.c **** /*******************************************************************************
 358:.\Generated_Source\PSoC5/Timer_Infrared.c **** * Function Name: Timer_Infrared_WriteControlRegister
 359:.\Generated_Source\PSoC5/Timer_Infrared.c **** ********************************************************************************
 360:.\Generated_Source\PSoC5/Timer_Infrared.c **** *
 361:.\Generated_Source\PSoC5/Timer_Infrared.c **** * Summary:
 362:.\Generated_Source\PSoC5/Timer_Infrared.c **** *  Sets the bit-field of the control register.
 363:.\Generated_Source\PSoC5/Timer_Infrared.c **** *
 364:.\Generated_Source\PSoC5/Timer_Infrared.c **** * Parameters:
 365:.\Generated_Source\PSoC5/Timer_Infrared.c **** *  control: The contents of the control register
 366:.\Generated_Source\PSoC5/Timer_Infrared.c **** *
 367:.\Generated_Source\PSoC5/Timer_Infrared.c **** * Return:
 368:.\Generated_Source\PSoC5/Timer_Infrared.c **** *
 369:.\Generated_Source\PSoC5/Timer_Infrared.c **** *******************************************************************************/
 370:.\Generated_Source\PSoC5/Timer_Infrared.c **** void Timer_Infrared_WriteControlRegister(uint8 control) 
 371:.\Generated_Source\PSoC5/Timer_Infrared.c **** {
 350              		.loc 1 371 0
 351              		.cfi_startproc
 352              		@ args = 0, pretend = 0, frame = 8
 353              		@ frame_needed = 1, uses_anonymous_args = 0
 354              		@ link register save eliminated.
 355 0000 80B4     		push	{r7}
 356              	.LCFI18:
 357              		.cfi_def_cfa_offset 4
 358 0002 83B0     		sub	sp, sp, #12
 359              	.LCFI19:
 360              		.cfi_def_cfa_offset 16
 361 0004 00AF     		add	r7, sp, #0
 362              		.cfi_offset 7, -4
 363              	.LCFI20:
 364              		.cfi_def_cfa_register 7
 365 0006 0346     		mov	r3, r0
 366 0008 FB71     		strb	r3, [r7, #7]
ARM GAS  C:\Users\dwguo\AppData\Local\Temp\ccNFeUnw.s 			page 14


 372:.\Generated_Source\PSoC5/Timer_Infrared.c ****     Timer_Infrared_CONTROL = control;
 367              		.loc 1 372 0
 368 000a 46F27453 		movw	r3, #:lower16:1073767796
 369 000e C4F20003 		movt	r3, #:upper16:1073767796
 370 0012 FA79     		ldrb	r2, [r7, #7]
 371 0014 1A70     		strb	r2, [r3, #0]
 373:.\Generated_Source\PSoC5/Timer_Infrared.c **** }
 372              		.loc 1 373 0
 373 0016 07F10C07 		add	r7, r7, #12
 374 001a BD46     		mov	sp, r7
 375 001c 80BC     		pop	{r7}
 376 001e 7047     		bx	lr
 377              		.cfi_endproc
 378              	.LFE8:
 379              		.size	Timer_Infrared_WriteControlRegister, .-Timer_Infrared_WriteControlRegister
 380              		.section	.text.Timer_Infrared_ReadPeriod,"ax",%progbits
 381              		.align	2
 382              		.global	Timer_Infrared_ReadPeriod
 383              		.thumb
 384              		.thumb_func
 385              		.type	Timer_Infrared_ReadPeriod, %function
 386              	Timer_Infrared_ReadPeriod:
 387              	.LFB9:
 374:.\Generated_Source\PSoC5/Timer_Infrared.c **** #endif /* Remove API if control register is removed */
 375:.\Generated_Source\PSoC5/Timer_Infrared.c **** 
 376:.\Generated_Source\PSoC5/Timer_Infrared.c **** 
 377:.\Generated_Source\PSoC5/Timer_Infrared.c **** /*******************************************************************************
 378:.\Generated_Source\PSoC5/Timer_Infrared.c **** * Function Name: Timer_Infrared_ReadPeriod
 379:.\Generated_Source\PSoC5/Timer_Infrared.c **** ********************************************************************************
 380:.\Generated_Source\PSoC5/Timer_Infrared.c **** *
 381:.\Generated_Source\PSoC5/Timer_Infrared.c **** * Summary:
 382:.\Generated_Source\PSoC5/Timer_Infrared.c **** *  This function returns the current value of the Period.
 383:.\Generated_Source\PSoC5/Timer_Infrared.c **** *
 384:.\Generated_Source\PSoC5/Timer_Infrared.c **** * Parameters:
 385:.\Generated_Source\PSoC5/Timer_Infrared.c **** *  void
 386:.\Generated_Source\PSoC5/Timer_Infrared.c **** *
 387:.\Generated_Source\PSoC5/Timer_Infrared.c **** * Return:
 388:.\Generated_Source\PSoC5/Timer_Infrared.c **** *  The present value of the counter.
 389:.\Generated_Source\PSoC5/Timer_Infrared.c **** *
 390:.\Generated_Source\PSoC5/Timer_Infrared.c **** *******************************************************************************/
 391:.\Generated_Source\PSoC5/Timer_Infrared.c **** uint32 Timer_Infrared_ReadPeriod(void) 
 392:.\Generated_Source\PSoC5/Timer_Infrared.c **** {
 388              		.loc 1 392 0
 389              		.cfi_startproc
 390              		@ args = 0, pretend = 0, frame = 0
 391              		@ frame_needed = 1, uses_anonymous_args = 0
 392              		@ link register save eliminated.
 393 0000 80B4     		push	{r7}
 394              	.LCFI21:
 395              		.cfi_def_cfa_offset 4
 396 0002 00AF     		add	r7, sp, #0
 397              		.cfi_offset 7, -4
 398              	.LCFI22:
 399              		.cfi_def_cfa_register 7
 393:.\Generated_Source\PSoC5/Timer_Infrared.c ****    return ( CY_GET_REG24(Timer_Infrared_PERIOD_LSB_PTR) );
 400              		.loc 1 393 0
 401 0004 46F22453 		movw	r3, #:lower16:1073767716
ARM GAS  C:\Users\dwguo\AppData\Local\Temp\ccNFeUnw.s 			page 15


 402 0008 C4F20003 		movt	r3, #:upper16:1073767716
 403 000c 1B68     		ldr	r3, [r3, #0]
 404 000e 23F07F43 		bic	r3, r3, #-16777216
 394:.\Generated_Source\PSoC5/Timer_Infrared.c **** }
 405              		.loc 1 394 0
 406 0012 1846     		mov	r0, r3
 407 0014 BD46     		mov	sp, r7
 408 0016 80BC     		pop	{r7}
 409 0018 7047     		bx	lr
 410              		.cfi_endproc
 411              	.LFE9:
 412              		.size	Timer_Infrared_ReadPeriod, .-Timer_Infrared_ReadPeriod
 413 001a 00BF     		.section	.text.Timer_Infrared_WritePeriod,"ax",%progbits
 414              		.align	2
 415              		.global	Timer_Infrared_WritePeriod
 416              		.thumb
 417              		.thumb_func
 418              		.type	Timer_Infrared_WritePeriod, %function
 419              	Timer_Infrared_WritePeriod:
 420              	.LFB10:
 395:.\Generated_Source\PSoC5/Timer_Infrared.c **** 
 396:.\Generated_Source\PSoC5/Timer_Infrared.c **** 
 397:.\Generated_Source\PSoC5/Timer_Infrared.c **** /*******************************************************************************
 398:.\Generated_Source\PSoC5/Timer_Infrared.c **** * Function Name: Timer_Infrared_WritePeriod
 399:.\Generated_Source\PSoC5/Timer_Infrared.c **** ********************************************************************************
 400:.\Generated_Source\PSoC5/Timer_Infrared.c **** *
 401:.\Generated_Source\PSoC5/Timer_Infrared.c **** * Summary:
 402:.\Generated_Source\PSoC5/Timer_Infrared.c **** *  This function is used to change the period of the counter.  The new period
 403:.\Generated_Source\PSoC5/Timer_Infrared.c **** *  will be loaded the next time terminal count is detected.
 404:.\Generated_Source\PSoC5/Timer_Infrared.c **** *
 405:.\Generated_Source\PSoC5/Timer_Infrared.c **** * Parameters:
 406:.\Generated_Source\PSoC5/Timer_Infrared.c **** *  period: This value may be between 1 and (2^Resolution)-1.  A value of 0 will
 407:.\Generated_Source\PSoC5/Timer_Infrared.c **** *          result in the counter remaining at zero.
 408:.\Generated_Source\PSoC5/Timer_Infrared.c **** *
 409:.\Generated_Source\PSoC5/Timer_Infrared.c **** * Return:
 410:.\Generated_Source\PSoC5/Timer_Infrared.c **** *  void
 411:.\Generated_Source\PSoC5/Timer_Infrared.c **** *
 412:.\Generated_Source\PSoC5/Timer_Infrared.c **** *******************************************************************************/
 413:.\Generated_Source\PSoC5/Timer_Infrared.c **** void Timer_Infrared_WritePeriod(uint32 period) 
 414:.\Generated_Source\PSoC5/Timer_Infrared.c **** {
 421              		.loc 1 414 0
 422              		.cfi_startproc
 423              		@ args = 0, pretend = 0, frame = 8
 424              		@ frame_needed = 1, uses_anonymous_args = 0
 425 0000 80B5     		push	{r7, lr}
 426              	.LCFI23:
 427              		.cfi_def_cfa_offset 8
 428 0002 82B0     		sub	sp, sp, #8
 429              	.LCFI24:
 430              		.cfi_def_cfa_offset 16
 431 0004 00AF     		add	r7, sp, #0
 432              		.cfi_offset 14, -4
 433              		.cfi_offset 7, -8
 434              	.LCFI25:
 435              		.cfi_def_cfa_register 7
 436 0006 7860     		str	r0, [r7, #4]
 415:.\Generated_Source\PSoC5/Timer_Infrared.c ****     #if(Timer_Infrared_UsingFixedFunction)
ARM GAS  C:\Users\dwguo\AppData\Local\Temp\ccNFeUnw.s 			page 16


 416:.\Generated_Source\PSoC5/Timer_Infrared.c ****         uint16 period_temp = (uint16)period;
 417:.\Generated_Source\PSoC5/Timer_Infrared.c ****         CY_SET_REG16(Timer_Infrared_PERIOD_LSB_PTR, period_temp);
 418:.\Generated_Source\PSoC5/Timer_Infrared.c ****     #else
 419:.\Generated_Source\PSoC5/Timer_Infrared.c ****         CY_SET_REG24(Timer_Infrared_PERIOD_LSB_PTR, period);
 437              		.loc 1 419 0
 438 0008 46F22450 		movw	r0, #:lower16:1073767716
 439 000c C4F20000 		movt	r0, #:upper16:1073767716
 440 0010 7968     		ldr	r1, [r7, #4]
 441 0012 FFF7FEFF 		bl	CySetReg24
 420:.\Generated_Source\PSoC5/Timer_Infrared.c ****     #endif /*Write Period value with appropriate resolution suffix depending on UDB or fixed functi
 421:.\Generated_Source\PSoC5/Timer_Infrared.c **** }
 442              		.loc 1 421 0
 443 0016 07F10807 		add	r7, r7, #8
 444 001a BD46     		mov	sp, r7
 445 001c 80BD     		pop	{r7, pc}
 446              		.cfi_endproc
 447              	.LFE10:
 448              		.size	Timer_Infrared_WritePeriod, .-Timer_Infrared_WritePeriod
 449 001e 00BF     		.section	.text.Timer_Infrared_ReadCapture,"ax",%progbits
 450              		.align	2
 451              		.global	Timer_Infrared_ReadCapture
 452              		.thumb
 453              		.thumb_func
 454              		.type	Timer_Infrared_ReadCapture, %function
 455              	Timer_Infrared_ReadCapture:
 456              	.LFB11:
 422:.\Generated_Source\PSoC5/Timer_Infrared.c **** 
 423:.\Generated_Source\PSoC5/Timer_Infrared.c **** 
 424:.\Generated_Source\PSoC5/Timer_Infrared.c **** /*******************************************************************************
 425:.\Generated_Source\PSoC5/Timer_Infrared.c **** * Function Name: Timer_Infrared_ReadCapture
 426:.\Generated_Source\PSoC5/Timer_Infrared.c **** ********************************************************************************
 427:.\Generated_Source\PSoC5/Timer_Infrared.c **** *
 428:.\Generated_Source\PSoC5/Timer_Infrared.c **** * Summary:
 429:.\Generated_Source\PSoC5/Timer_Infrared.c **** *  This function returns the last value captured.
 430:.\Generated_Source\PSoC5/Timer_Infrared.c **** *
 431:.\Generated_Source\PSoC5/Timer_Infrared.c **** * Parameters:
 432:.\Generated_Source\PSoC5/Timer_Infrared.c **** *  void
 433:.\Generated_Source\PSoC5/Timer_Infrared.c **** *
 434:.\Generated_Source\PSoC5/Timer_Infrared.c **** * Return:
 435:.\Generated_Source\PSoC5/Timer_Infrared.c **** *  Present Capture value.
 436:.\Generated_Source\PSoC5/Timer_Infrared.c **** *
 437:.\Generated_Source\PSoC5/Timer_Infrared.c **** *******************************************************************************/
 438:.\Generated_Source\PSoC5/Timer_Infrared.c **** uint32 Timer_Infrared_ReadCapture(void) 
 439:.\Generated_Source\PSoC5/Timer_Infrared.c **** {
 457              		.loc 1 439 0
 458              		.cfi_startproc
 459              		@ args = 0, pretend = 0, frame = 0
 460              		@ frame_needed = 1, uses_anonymous_args = 0
 461              		@ link register save eliminated.
 462 0000 80B4     		push	{r7}
 463              	.LCFI26:
 464              		.cfi_def_cfa_offset 4
 465 0002 00AF     		add	r7, sp, #0
 466              		.cfi_offset 7, -4
 467              	.LCFI27:
 468              		.cfi_def_cfa_register 7
 440:.\Generated_Source\PSoC5/Timer_Infrared.c ****    return ( CY_GET_REG24(Timer_Infrared_CAPTURE_LSB_PTR) );
ARM GAS  C:\Users\dwguo\AppData\Local\Temp\ccNFeUnw.s 			page 17


 469              		.loc 1 440 0
 470 0004 46F24453 		movw	r3, #:lower16:1073767748
 471 0008 C4F20003 		movt	r3, #:upper16:1073767748
 472 000c 1B68     		ldr	r3, [r3, #0]
 473 000e 23F07F43 		bic	r3, r3, #-16777216
 441:.\Generated_Source\PSoC5/Timer_Infrared.c **** }
 474              		.loc 1 441 0
 475 0012 1846     		mov	r0, r3
 476 0014 BD46     		mov	sp, r7
 477 0016 80BC     		pop	{r7}
 478 0018 7047     		bx	lr
 479              		.cfi_endproc
 480              	.LFE11:
 481              		.size	Timer_Infrared_ReadCapture, .-Timer_Infrared_ReadCapture
 482 001a 00BF     		.section	.text.Timer_Infrared_WriteCounter,"ax",%progbits
 483              		.align	2
 484              		.global	Timer_Infrared_WriteCounter
 485              		.thumb
 486              		.thumb_func
 487              		.type	Timer_Infrared_WriteCounter, %function
 488              	Timer_Infrared_WriteCounter:
 489              	.LFB12:
 442:.\Generated_Source\PSoC5/Timer_Infrared.c **** 
 443:.\Generated_Source\PSoC5/Timer_Infrared.c **** 
 444:.\Generated_Source\PSoC5/Timer_Infrared.c **** /*******************************************************************************
 445:.\Generated_Source\PSoC5/Timer_Infrared.c **** * Function Name: Timer_Infrared_WriteCounter
 446:.\Generated_Source\PSoC5/Timer_Infrared.c **** ********************************************************************************
 447:.\Generated_Source\PSoC5/Timer_Infrared.c **** *
 448:.\Generated_Source\PSoC5/Timer_Infrared.c **** * Summary:
 449:.\Generated_Source\PSoC5/Timer_Infrared.c **** *  This funtion is used to set the counter to a specific value
 450:.\Generated_Source\PSoC5/Timer_Infrared.c **** *
 451:.\Generated_Source\PSoC5/Timer_Infrared.c **** * Parameters:
 452:.\Generated_Source\PSoC5/Timer_Infrared.c **** *  counter:  New counter value.
 453:.\Generated_Source\PSoC5/Timer_Infrared.c **** *
 454:.\Generated_Source\PSoC5/Timer_Infrared.c **** * Return:
 455:.\Generated_Source\PSoC5/Timer_Infrared.c **** *  void
 456:.\Generated_Source\PSoC5/Timer_Infrared.c **** *
 457:.\Generated_Source\PSoC5/Timer_Infrared.c **** *******************************************************************************/
 458:.\Generated_Source\PSoC5/Timer_Infrared.c **** void Timer_Infrared_WriteCounter(uint32 counter) \
 459:.\Generated_Source\PSoC5/Timer_Infrared.c ****                                    
 460:.\Generated_Source\PSoC5/Timer_Infrared.c **** {
 490              		.loc 1 460 0
 491              		.cfi_startproc
 492              		@ args = 0, pretend = 0, frame = 8
 493              		@ frame_needed = 1, uses_anonymous_args = 0
 494 0000 80B5     		push	{r7, lr}
 495              	.LCFI28:
 496              		.cfi_def_cfa_offset 8
 497 0002 82B0     		sub	sp, sp, #8
 498              	.LCFI29:
 499              		.cfi_def_cfa_offset 16
 500 0004 00AF     		add	r7, sp, #0
 501              		.cfi_offset 14, -4
 502              		.cfi_offset 7, -8
 503              	.LCFI30:
 504              		.cfi_def_cfa_register 7
 505 0006 7860     		str	r0, [r7, #4]
ARM GAS  C:\Users\dwguo\AppData\Local\Temp\ccNFeUnw.s 			page 18


 461:.\Generated_Source\PSoC5/Timer_Infrared.c ****    #if(Timer_Infrared_UsingFixedFunction)
 462:.\Generated_Source\PSoC5/Timer_Infrared.c ****         counter = counter;
 463:.\Generated_Source\PSoC5/Timer_Infrared.c ****         /* This functionality is removed until a FixedFunction HW update to
 464:.\Generated_Source\PSoC5/Timer_Infrared.c ****          * allow this register to be written
 465:.\Generated_Source\PSoC5/Timer_Infrared.c ****          */
 466:.\Generated_Source\PSoC5/Timer_Infrared.c ****         /* uint16 counter_temp = (uint16)counter;
 467:.\Generated_Source\PSoC5/Timer_Infrared.c ****          * CY_SET_REG16(Timer_Infrared_COUNTER_LSB_PTR, counter_temp);
 468:.\Generated_Source\PSoC5/Timer_Infrared.c ****          */
 469:.\Generated_Source\PSoC5/Timer_Infrared.c ****     #else
 470:.\Generated_Source\PSoC5/Timer_Infrared.c ****         CY_SET_REG24(Timer_Infrared_COUNTER_LSB_PTR, counter);
 506              		.loc 1 470 0
 507 0008 46F20450 		movw	r0, #:lower16:1073767684
 508 000c C4F20000 		movt	r0, #:upper16:1073767684
 509 0010 7968     		ldr	r1, [r7, #4]
 510 0012 FFF7FEFF 		bl	CySetReg24
 471:.\Generated_Source\PSoC5/Timer_Infrared.c ****     #endif /* Set Write Counter only for the UDB implementation (Write Counter not available in fix
 472:.\Generated_Source\PSoC5/Timer_Infrared.c **** }
 511              		.loc 1 472 0
 512 0016 07F10807 		add	r7, r7, #8
 513 001a BD46     		mov	sp, r7
 514 001c 80BD     		pop	{r7, pc}
 515              		.cfi_endproc
 516              	.LFE12:
 517              		.size	Timer_Infrared_WriteCounter, .-Timer_Infrared_WriteCounter
 518 001e 00BF     		.section	.text.Timer_Infrared_ReadCounter,"ax",%progbits
 519              		.align	2
 520              		.global	Timer_Infrared_ReadCounter
 521              		.thumb
 522              		.thumb_func
 523              		.type	Timer_Infrared_ReadCounter, %function
 524              	Timer_Infrared_ReadCounter:
 525              	.LFB13:
 473:.\Generated_Source\PSoC5/Timer_Infrared.c **** 
 474:.\Generated_Source\PSoC5/Timer_Infrared.c **** 
 475:.\Generated_Source\PSoC5/Timer_Infrared.c **** /*******************************************************************************
 476:.\Generated_Source\PSoC5/Timer_Infrared.c **** * Function Name: Timer_Infrared_ReadCounter
 477:.\Generated_Source\PSoC5/Timer_Infrared.c **** ********************************************************************************
 478:.\Generated_Source\PSoC5/Timer_Infrared.c **** *
 479:.\Generated_Source\PSoC5/Timer_Infrared.c **** * Summary:
 480:.\Generated_Source\PSoC5/Timer_Infrared.c **** *  This function returns the current counter value.
 481:.\Generated_Source\PSoC5/Timer_Infrared.c **** *
 482:.\Generated_Source\PSoC5/Timer_Infrared.c **** * Parameters:
 483:.\Generated_Source\PSoC5/Timer_Infrared.c **** *  void
 484:.\Generated_Source\PSoC5/Timer_Infrared.c **** *
 485:.\Generated_Source\PSoC5/Timer_Infrared.c **** * Return:
 486:.\Generated_Source\PSoC5/Timer_Infrared.c **** *  Present compare value.
 487:.\Generated_Source\PSoC5/Timer_Infrared.c **** *
 488:.\Generated_Source\PSoC5/Timer_Infrared.c **** *******************************************************************************/
 489:.\Generated_Source\PSoC5/Timer_Infrared.c **** uint32 Timer_Infrared_ReadCounter(void) 
 490:.\Generated_Source\PSoC5/Timer_Infrared.c **** {
 526              		.loc 1 490 0
 527              		.cfi_startproc
 528              		@ args = 0, pretend = 0, frame = 0
 529              		@ frame_needed = 1, uses_anonymous_args = 0
 530              		@ link register save eliminated.
 531 0000 80B4     		push	{r7}
 532              	.LCFI31:
ARM GAS  C:\Users\dwguo\AppData\Local\Temp\ccNFeUnw.s 			page 19


 533              		.cfi_def_cfa_offset 4
 534 0002 00AF     		add	r7, sp, #0
 535              		.cfi_offset 7, -4
 536              	.LCFI32:
 537              		.cfi_def_cfa_register 7
 491:.\Generated_Source\PSoC5/Timer_Infrared.c **** 
 492:.\Generated_Source\PSoC5/Timer_Infrared.c ****     /* Force capture by reading Accumulator */
 493:.\Generated_Source\PSoC5/Timer_Infrared.c ****     /* Must first do a software capture to be able to read the counter */
 494:.\Generated_Source\PSoC5/Timer_Infrared.c ****     /* It is up to the user code to make sure there isn't already captured data in the FIFO */
 495:.\Generated_Source\PSoC5/Timer_Infrared.c ****     CY_GET_REG8(Timer_Infrared_COUNTER_LSB_PTR);
 538              		.loc 1 495 0
 539 0004 46F20453 		movw	r3, #:lower16:1073767684
 540 0008 C4F20003 		movt	r3, #:upper16:1073767684
 541 000c 1B78     		ldrb	r3, [r3, #0]
 496:.\Generated_Source\PSoC5/Timer_Infrared.c **** 
 497:.\Generated_Source\PSoC5/Timer_Infrared.c ****     /* Read the data from the FIFO (or capture register for Fixed Function)*/
 498:.\Generated_Source\PSoC5/Timer_Infrared.c ****     return (CY_GET_REG24(Timer_Infrared_CAPTURE_LSB_PTR));
 542              		.loc 1 498 0
 543 000e 46F24453 		movw	r3, #:lower16:1073767748
 544 0012 C4F20003 		movt	r3, #:upper16:1073767748
 545 0016 1B68     		ldr	r3, [r3, #0]
 546 0018 23F07F43 		bic	r3, r3, #-16777216
 499:.\Generated_Source\PSoC5/Timer_Infrared.c **** }
 547              		.loc 1 499 0
 548 001c 1846     		mov	r0, r3
 549 001e BD46     		mov	sp, r7
 550 0020 80BC     		pop	{r7}
 551 0022 7047     		bx	lr
 552              		.cfi_endproc
 553              	.LFE13:
 554              		.size	Timer_Infrared_ReadCounter, .-Timer_Infrared_ReadCounter
 555              		.section	.text.Timer_Infrared_SetInterruptCount,"ax",%progbits
 556              		.align	2
 557              		.global	Timer_Infrared_SetInterruptCount
 558              		.thumb
 559              		.thumb_func
 560              		.type	Timer_Infrared_SetInterruptCount, %function
 561              	Timer_Infrared_SetInterruptCount:
 562              	.LFB14:
 500:.\Generated_Source\PSoC5/Timer_Infrared.c **** 
 501:.\Generated_Source\PSoC5/Timer_Infrared.c **** 
 502:.\Generated_Source\PSoC5/Timer_Infrared.c **** #if(!Timer_Infrared_UsingFixedFunction) /* UDB Specific Functions */
 503:.\Generated_Source\PSoC5/Timer_Infrared.c **** 
 504:.\Generated_Source\PSoC5/Timer_Infrared.c **** /*******************************************************************************
 505:.\Generated_Source\PSoC5/Timer_Infrared.c ****  * The functions below this point are only available using the UDB
 506:.\Generated_Source\PSoC5/Timer_Infrared.c ****  * implementation.  If a feature is selected, then the API is enabled.
 507:.\Generated_Source\PSoC5/Timer_Infrared.c ****  ******************************************************************************/
 508:.\Generated_Source\PSoC5/Timer_Infrared.c **** 
 509:.\Generated_Source\PSoC5/Timer_Infrared.c **** 
 510:.\Generated_Source\PSoC5/Timer_Infrared.c **** #if (Timer_Infrared_SoftwareCaptureMode)
 511:.\Generated_Source\PSoC5/Timer_Infrared.c **** 
 512:.\Generated_Source\PSoC5/Timer_Infrared.c **** 
 513:.\Generated_Source\PSoC5/Timer_Infrared.c **** /*******************************************************************************
 514:.\Generated_Source\PSoC5/Timer_Infrared.c **** * Function Name: Timer_Infrared_SetCaptureMode
 515:.\Generated_Source\PSoC5/Timer_Infrared.c **** ********************************************************************************
 516:.\Generated_Source\PSoC5/Timer_Infrared.c **** *
 517:.\Generated_Source\PSoC5/Timer_Infrared.c **** * Summary:
ARM GAS  C:\Users\dwguo\AppData\Local\Temp\ccNFeUnw.s 			page 20


 518:.\Generated_Source\PSoC5/Timer_Infrared.c **** *  This function sets the capture mode to either rising or falling edge.
 519:.\Generated_Source\PSoC5/Timer_Infrared.c **** *
 520:.\Generated_Source\PSoC5/Timer_Infrared.c **** * Parameters:
 521:.\Generated_Source\PSoC5/Timer_Infrared.c **** *  captureMode: This parameter sets the capture mode of the UDB capture feature
 522:.\Generated_Source\PSoC5/Timer_Infrared.c **** *  The parameter values are defined using the
 523:.\Generated_Source\PSoC5/Timer_Infrared.c **** *  #define Timer_Infrared__B_TIMER__CM_NONE 0
 524:.\Generated_Source\PSoC5/Timer_Infrared.c **** #define Timer_Infrared__B_TIMER__CM_RISINGEDGE 1
 525:.\Generated_Source\PSoC5/Timer_Infrared.c **** #define Timer_Infrared__B_TIMER__CM_FALLINGEDGE 2
 526:.\Generated_Source\PSoC5/Timer_Infrared.c **** #define Timer_Infrared__B_TIMER__CM_EITHEREDGE 3
 527:.\Generated_Source\PSoC5/Timer_Infrared.c **** #define Timer_Infrared__B_TIMER__CM_SOFTWARE 4
 528:.\Generated_Source\PSoC5/Timer_Infrared.c ****  identifiers
 529:.\Generated_Source\PSoC5/Timer_Infrared.c **** *  The following are the possible values of the parameter
 530:.\Generated_Source\PSoC5/Timer_Infrared.c **** *  Timer_Infrared__B_TIMER__CM_NONE        - Set Capture mode to None
 531:.\Generated_Source\PSoC5/Timer_Infrared.c **** *  Timer_Infrared__B_TIMER__CM_RISINGEDGE  - Rising edge of Capture input
 532:.\Generated_Source\PSoC5/Timer_Infrared.c **** *  Timer_Infrared__B_TIMER__CM_FALLINGEDGE - Falling edge of Capture input
 533:.\Generated_Source\PSoC5/Timer_Infrared.c **** *  Timer_Infrared__B_TIMER__CM_EITHEREDGE  - Either edge of Capture input
 534:.\Generated_Source\PSoC5/Timer_Infrared.c **** *
 535:.\Generated_Source\PSoC5/Timer_Infrared.c **** * Return:
 536:.\Generated_Source\PSoC5/Timer_Infrared.c **** *  void
 537:.\Generated_Source\PSoC5/Timer_Infrared.c **** *
 538:.\Generated_Source\PSoC5/Timer_Infrared.c **** *******************************************************************************/
 539:.\Generated_Source\PSoC5/Timer_Infrared.c **** void Timer_Infrared_SetCaptureMode(uint8 captureMode) 
 540:.\Generated_Source\PSoC5/Timer_Infrared.c **** {
 541:.\Generated_Source\PSoC5/Timer_Infrared.c ****     /* This must only set to two bits of the control register associated */
 542:.\Generated_Source\PSoC5/Timer_Infrared.c ****     captureMode = (captureMode << Timer_Infrared_CTRL_CAP_MODE_SHIFT);
 543:.\Generated_Source\PSoC5/Timer_Infrared.c ****     captureMode &= (Timer_Infrared_CTRL_CAP_MODE_MASK);
 544:.\Generated_Source\PSoC5/Timer_Infrared.c **** 
 545:.\Generated_Source\PSoC5/Timer_Infrared.c ****     /* Clear the Current Setting */
 546:.\Generated_Source\PSoC5/Timer_Infrared.c ****     Timer_Infrared_CONTROL &= ~Timer_Infrared_CTRL_CAP_MODE_MASK;
 547:.\Generated_Source\PSoC5/Timer_Infrared.c **** 
 548:.\Generated_Source\PSoC5/Timer_Infrared.c ****     /* Write The New Setting */
 549:.\Generated_Source\PSoC5/Timer_Infrared.c ****     Timer_Infrared_CONTROL |= captureMode;
 550:.\Generated_Source\PSoC5/Timer_Infrared.c **** }
 551:.\Generated_Source\PSoC5/Timer_Infrared.c **** #endif /* Remove API if Capture Mode is not Software Controlled */
 552:.\Generated_Source\PSoC5/Timer_Infrared.c **** 
 553:.\Generated_Source\PSoC5/Timer_Infrared.c **** 
 554:.\Generated_Source\PSoC5/Timer_Infrared.c **** #if (Timer_Infrared_SoftwareTriggerMode)
 555:.\Generated_Source\PSoC5/Timer_Infrared.c **** 
 556:.\Generated_Source\PSoC5/Timer_Infrared.c **** 
 557:.\Generated_Source\PSoC5/Timer_Infrared.c **** /*******************************************************************************
 558:.\Generated_Source\PSoC5/Timer_Infrared.c **** * Function Name: Timer_Infrared_SetTriggerMode
 559:.\Generated_Source\PSoC5/Timer_Infrared.c **** ********************************************************************************
 560:.\Generated_Source\PSoC5/Timer_Infrared.c **** *
 561:.\Generated_Source\PSoC5/Timer_Infrared.c **** * Summary:
 562:.\Generated_Source\PSoC5/Timer_Infrared.c **** *  This function sets the trigger input mode
 563:.\Generated_Source\PSoC5/Timer_Infrared.c **** *
 564:.\Generated_Source\PSoC5/Timer_Infrared.c **** * Parameters:
 565:.\Generated_Source\PSoC5/Timer_Infrared.c **** *  triggerMode: Pass one of the pre-defined Trigger Modes (except Software)
 566:.\Generated_Source\PSoC5/Timer_Infrared.c ****     #define Timer_Infrared__B_TIMER__TM_NONE 0x00u
 567:.\Generated_Source\PSoC5/Timer_Infrared.c ****     #define Timer_Infrared__B_TIMER__TM_RISINGEDGE 0x04u
 568:.\Generated_Source\PSoC5/Timer_Infrared.c ****     #define Timer_Infrared__B_TIMER__TM_FALLINGEDGE 0x08u
 569:.\Generated_Source\PSoC5/Timer_Infrared.c ****     #define Timer_Infrared__B_TIMER__TM_EITHEREDGE 0x0Cu
 570:.\Generated_Source\PSoC5/Timer_Infrared.c ****     #define Timer_Infrared__B_TIMER__TM_SOFTWARE 0x10u
 571:.\Generated_Source\PSoC5/Timer_Infrared.c **** *
 572:.\Generated_Source\PSoC5/Timer_Infrared.c **** * Return:
 573:.\Generated_Source\PSoC5/Timer_Infrared.c **** *  void
 574:.\Generated_Source\PSoC5/Timer_Infrared.c **** *
ARM GAS  C:\Users\dwguo\AppData\Local\Temp\ccNFeUnw.s 			page 21


 575:.\Generated_Source\PSoC5/Timer_Infrared.c **** *******************************************************************************/
 576:.\Generated_Source\PSoC5/Timer_Infrared.c **** void Timer_Infrared_SetTriggerMode(uint8 triggerMode) 
 577:.\Generated_Source\PSoC5/Timer_Infrared.c **** {
 578:.\Generated_Source\PSoC5/Timer_Infrared.c ****     /* This must only set to two bits of the control register associated */
 579:.\Generated_Source\PSoC5/Timer_Infrared.c ****     triggerMode &= Timer_Infrared_CTRL_TRIG_MODE_MASK;
 580:.\Generated_Source\PSoC5/Timer_Infrared.c **** 
 581:.\Generated_Source\PSoC5/Timer_Infrared.c ****     /* Clear the Current Setting */
 582:.\Generated_Source\PSoC5/Timer_Infrared.c ****     Timer_Infrared_CONTROL &= ~Timer_Infrared_CTRL_TRIG_MODE_MASK;
 583:.\Generated_Source\PSoC5/Timer_Infrared.c **** 
 584:.\Generated_Source\PSoC5/Timer_Infrared.c ****     /* Write The New Setting */
 585:.\Generated_Source\PSoC5/Timer_Infrared.c ****     Timer_Infrared_CONTROL |= (triggerMode | Timer_Infrared__B_TIMER__TM_SOFTWARE);
 586:.\Generated_Source\PSoC5/Timer_Infrared.c **** 
 587:.\Generated_Source\PSoC5/Timer_Infrared.c **** }
 588:.\Generated_Source\PSoC5/Timer_Infrared.c **** #endif /* Remove API if Trigger Mode is not Software Controlled */
 589:.\Generated_Source\PSoC5/Timer_Infrared.c **** 
 590:.\Generated_Source\PSoC5/Timer_Infrared.c **** #if (Timer_Infrared_EnableTriggerMode)
 591:.\Generated_Source\PSoC5/Timer_Infrared.c **** 
 592:.\Generated_Source\PSoC5/Timer_Infrared.c **** 
 593:.\Generated_Source\PSoC5/Timer_Infrared.c **** /*******************************************************************************
 594:.\Generated_Source\PSoC5/Timer_Infrared.c **** * Function Name: Timer_Infrared_EnableTrigger
 595:.\Generated_Source\PSoC5/Timer_Infrared.c **** ********************************************************************************
 596:.\Generated_Source\PSoC5/Timer_Infrared.c **** *
 597:.\Generated_Source\PSoC5/Timer_Infrared.c **** * Summary:
 598:.\Generated_Source\PSoC5/Timer_Infrared.c **** *  Sets the control bit enabling Hardware Trigger mode
 599:.\Generated_Source\PSoC5/Timer_Infrared.c **** *
 600:.\Generated_Source\PSoC5/Timer_Infrared.c **** * Parameters:
 601:.\Generated_Source\PSoC5/Timer_Infrared.c **** *  void
 602:.\Generated_Source\PSoC5/Timer_Infrared.c **** *
 603:.\Generated_Source\PSoC5/Timer_Infrared.c **** * Return:
 604:.\Generated_Source\PSoC5/Timer_Infrared.c **** *  void
 605:.\Generated_Source\PSoC5/Timer_Infrared.c **** *
 606:.\Generated_Source\PSoC5/Timer_Infrared.c **** *******************************************************************************/
 607:.\Generated_Source\PSoC5/Timer_Infrared.c **** void Timer_Infrared_EnableTrigger(void) 
 608:.\Generated_Source\PSoC5/Timer_Infrared.c **** {
 609:.\Generated_Source\PSoC5/Timer_Infrared.c ****     #if (!Timer_Infrared_ControlRegRemoved)   /* Remove assignment if control register is removed *
 610:.\Generated_Source\PSoC5/Timer_Infrared.c ****         Timer_Infrared_CONTROL |= Timer_Infrared_CTRL_TRIG_EN;
 611:.\Generated_Source\PSoC5/Timer_Infrared.c ****     #endif /* Remove code section if control register is not used */
 612:.\Generated_Source\PSoC5/Timer_Infrared.c **** }
 613:.\Generated_Source\PSoC5/Timer_Infrared.c **** 
 614:.\Generated_Source\PSoC5/Timer_Infrared.c **** 
 615:.\Generated_Source\PSoC5/Timer_Infrared.c **** /*******************************************************************************
 616:.\Generated_Source\PSoC5/Timer_Infrared.c **** * Function Name: Timer_Infrared_DisableTrigger
 617:.\Generated_Source\PSoC5/Timer_Infrared.c **** ********************************************************************************
 618:.\Generated_Source\PSoC5/Timer_Infrared.c **** *
 619:.\Generated_Source\PSoC5/Timer_Infrared.c **** * Summary:
 620:.\Generated_Source\PSoC5/Timer_Infrared.c **** *  Clears the control bit enabling Hardware Trigger mode
 621:.\Generated_Source\PSoC5/Timer_Infrared.c **** *
 622:.\Generated_Source\PSoC5/Timer_Infrared.c **** * Parameters:
 623:.\Generated_Source\PSoC5/Timer_Infrared.c **** *  void
 624:.\Generated_Source\PSoC5/Timer_Infrared.c **** *
 625:.\Generated_Source\PSoC5/Timer_Infrared.c **** * Return:
 626:.\Generated_Source\PSoC5/Timer_Infrared.c **** *  void
 627:.\Generated_Source\PSoC5/Timer_Infrared.c **** *
 628:.\Generated_Source\PSoC5/Timer_Infrared.c **** *******************************************************************************/
 629:.\Generated_Source\PSoC5/Timer_Infrared.c **** void Timer_Infrared_DisableTrigger(void) 
 630:.\Generated_Source\PSoC5/Timer_Infrared.c **** {
 631:.\Generated_Source\PSoC5/Timer_Infrared.c ****     #if (!Timer_Infrared_ControlRegRemoved)   /* Remove assignment if control register is removed *
ARM GAS  C:\Users\dwguo\AppData\Local\Temp\ccNFeUnw.s 			page 22


 632:.\Generated_Source\PSoC5/Timer_Infrared.c ****         Timer_Infrared_CONTROL &= ~Timer_Infrared_CTRL_TRIG_EN;
 633:.\Generated_Source\PSoC5/Timer_Infrared.c ****     #endif /* Remove code section if control register is not used */
 634:.\Generated_Source\PSoC5/Timer_Infrared.c **** }
 635:.\Generated_Source\PSoC5/Timer_Infrared.c **** #endif /* Remove API is Trigger Mode is set to None */
 636:.\Generated_Source\PSoC5/Timer_Infrared.c **** 
 637:.\Generated_Source\PSoC5/Timer_Infrared.c **** 
 638:.\Generated_Source\PSoC5/Timer_Infrared.c **** #if(Timer_Infrared_InterruptOnCaptureCount)
 639:.\Generated_Source\PSoC5/Timer_Infrared.c **** #if (!Timer_Infrared_ControlRegRemoved)   /* Remove API if control register is removed */
 640:.\Generated_Source\PSoC5/Timer_Infrared.c **** 
 641:.\Generated_Source\PSoC5/Timer_Infrared.c **** 
 642:.\Generated_Source\PSoC5/Timer_Infrared.c **** /*******************************************************************************
 643:.\Generated_Source\PSoC5/Timer_Infrared.c **** * Function Name: Timer_Infrared_SetInterruptCount
 644:.\Generated_Source\PSoC5/Timer_Infrared.c **** ********************************************************************************
 645:.\Generated_Source\PSoC5/Timer_Infrared.c **** *
 646:.\Generated_Source\PSoC5/Timer_Infrared.c **** * Summary:
 647:.\Generated_Source\PSoC5/Timer_Infrared.c **** *  This function sets the capture count before an interrupt is triggered.
 648:.\Generated_Source\PSoC5/Timer_Infrared.c **** *
 649:.\Generated_Source\PSoC5/Timer_Infrared.c **** * Parameters:
 650:.\Generated_Source\PSoC5/Timer_Infrared.c **** *  interruptCount:  A value between 0 and 3 is valid.  If the value is 0, then
 651:.\Generated_Source\PSoC5/Timer_Infrared.c **** *                   an interrupt will occur each time a capture occurs.
 652:.\Generated_Source\PSoC5/Timer_Infrared.c **** *                   A value of 1 to 3 will cause the interrupt
 653:.\Generated_Source\PSoC5/Timer_Infrared.c **** *                   to delay by the same number of captures.
 654:.\Generated_Source\PSoC5/Timer_Infrared.c **** *
 655:.\Generated_Source\PSoC5/Timer_Infrared.c **** * Return:
 656:.\Generated_Source\PSoC5/Timer_Infrared.c **** *  void
 657:.\Generated_Source\PSoC5/Timer_Infrared.c **** *
 658:.\Generated_Source\PSoC5/Timer_Infrared.c **** *******************************************************************************/
 659:.\Generated_Source\PSoC5/Timer_Infrared.c **** void Timer_Infrared_SetInterruptCount(uint8 interruptCount) 
 660:.\Generated_Source\PSoC5/Timer_Infrared.c **** {
 563              		.loc 1 660 0
 564              		.cfi_startproc
 565              		@ args = 0, pretend = 0, frame = 8
 566              		@ frame_needed = 1, uses_anonymous_args = 0
 567              		@ link register save eliminated.
 568 0000 80B4     		push	{r7}
 569              	.LCFI33:
 570              		.cfi_def_cfa_offset 4
 571 0002 83B0     		sub	sp, sp, #12
 572              	.LCFI34:
 573              		.cfi_def_cfa_offset 16
 574 0004 00AF     		add	r7, sp, #0
 575              		.cfi_offset 7, -4
 576              	.LCFI35:
 577              		.cfi_def_cfa_register 7
 578 0006 0346     		mov	r3, r0
 579 0008 FB71     		strb	r3, [r7, #7]
 661:.\Generated_Source\PSoC5/Timer_Infrared.c ****     /* This must only set to two bits of the control register associated */
 662:.\Generated_Source\PSoC5/Timer_Infrared.c ****     interruptCount &= Timer_Infrared_CTRL_INTCNT_MASK;
 580              		.loc 1 662 0
 581 000a FB79     		ldrb	r3, [r7, #7]
 582 000c 03F00303 		and	r3, r3, #3
 583 0010 FB71     		strb	r3, [r7, #7]
 663:.\Generated_Source\PSoC5/Timer_Infrared.c **** 
 664:.\Generated_Source\PSoC5/Timer_Infrared.c ****     /* Clear the Current Setting */
 665:.\Generated_Source\PSoC5/Timer_Infrared.c ****     Timer_Infrared_CONTROL &= ~Timer_Infrared_CTRL_INTCNT_MASK;
 584              		.loc 1 665 0
 585 0012 46F27453 		movw	r3, #:lower16:1073767796
ARM GAS  C:\Users\dwguo\AppData\Local\Temp\ccNFeUnw.s 			page 23


 586 0016 C4F20003 		movt	r3, #:upper16:1073767796
 587 001a 46F27452 		movw	r2, #:lower16:1073767796
 588 001e C4F20002 		movt	r2, #:upper16:1073767796
 589 0022 1278     		ldrb	r2, [r2, #0]
 590 0024 D2B2     		uxtb	r2, r2
 591 0026 02F0FC02 		and	r2, r2, #252
 592 002a 1A70     		strb	r2, [r3, #0]
 666:.\Generated_Source\PSoC5/Timer_Infrared.c ****     /* Write The New Setting */
 667:.\Generated_Source\PSoC5/Timer_Infrared.c ****     Timer_Infrared_CONTROL |= interruptCount;
 593              		.loc 1 667 0
 594 002c 46F27453 		movw	r3, #:lower16:1073767796
 595 0030 C4F20003 		movt	r3, #:upper16:1073767796
 596 0034 46F27452 		movw	r2, #:lower16:1073767796
 597 0038 C4F20002 		movt	r2, #:upper16:1073767796
 598 003c 1278     		ldrb	r2, [r2, #0]
 599 003e D1B2     		uxtb	r1, r2
 600 0040 FA79     		ldrb	r2, [r7, #7]
 601 0042 41EA0202 		orr	r2, r1, r2
 602 0046 D2B2     		uxtb	r2, r2
 603 0048 1A70     		strb	r2, [r3, #0]
 668:.\Generated_Source\PSoC5/Timer_Infrared.c **** }
 604              		.loc 1 668 0
 605 004a 07F10C07 		add	r7, r7, #12
 606 004e BD46     		mov	sp, r7
 607 0050 80BC     		pop	{r7}
 608 0052 7047     		bx	lr
 609              		.cfi_endproc
 610              	.LFE14:
 611              		.size	Timer_Infrared_SetInterruptCount, .-Timer_Infrared_SetInterruptCount
 612              		.section	.text.Timer_Infrared_ClearFIFO,"ax",%progbits
 613              		.align	2
 614              		.global	Timer_Infrared_ClearFIFO
 615              		.thumb
 616              		.thumb_func
 617              		.type	Timer_Infrared_ClearFIFO, %function
 618              	Timer_Infrared_ClearFIFO:
 619              	.LFB15:
 669:.\Generated_Source\PSoC5/Timer_Infrared.c **** #endif /* Remove API if control register is removed */
 670:.\Generated_Source\PSoC5/Timer_Infrared.c **** #endif /* Timer_Infrared_InterruptOnCaptureCount */
 671:.\Generated_Source\PSoC5/Timer_Infrared.c **** 
 672:.\Generated_Source\PSoC5/Timer_Infrared.c **** 
 673:.\Generated_Source\PSoC5/Timer_Infrared.c **** #if (Timer_Infrared_UsingHWCaptureCounter)
 674:.\Generated_Source\PSoC5/Timer_Infrared.c **** 
 675:.\Generated_Source\PSoC5/Timer_Infrared.c **** 
 676:.\Generated_Source\PSoC5/Timer_Infrared.c **** /*******************************************************************************
 677:.\Generated_Source\PSoC5/Timer_Infrared.c **** * Function Name: Timer_Infrared_SetCaptureCount
 678:.\Generated_Source\PSoC5/Timer_Infrared.c **** ********************************************************************************
 679:.\Generated_Source\PSoC5/Timer_Infrared.c **** *
 680:.\Generated_Source\PSoC5/Timer_Infrared.c **** * Summary:
 681:.\Generated_Source\PSoC5/Timer_Infrared.c **** *  This function sets the capture count
 682:.\Generated_Source\PSoC5/Timer_Infrared.c **** *
 683:.\Generated_Source\PSoC5/Timer_Infrared.c **** * Parameters:
 684:.\Generated_Source\PSoC5/Timer_Infrared.c **** *  captureCount: A value between 2 and 127 inclusive is valid.  A value of 1
 685:.\Generated_Source\PSoC5/Timer_Infrared.c **** *                to 127 will cause the interrupt to delay by the same number of
 686:.\Generated_Source\PSoC5/Timer_Infrared.c **** *                captures.
 687:.\Generated_Source\PSoC5/Timer_Infrared.c **** *
 688:.\Generated_Source\PSoC5/Timer_Infrared.c **** * Return:
ARM GAS  C:\Users\dwguo\AppData\Local\Temp\ccNFeUnw.s 			page 24


 689:.\Generated_Source\PSoC5/Timer_Infrared.c **** *  void
 690:.\Generated_Source\PSoC5/Timer_Infrared.c **** *
 691:.\Generated_Source\PSoC5/Timer_Infrared.c **** *******************************************************************************/
 692:.\Generated_Source\PSoC5/Timer_Infrared.c **** void Timer_Infrared_SetCaptureCount(uint8 captureCount) 
 693:.\Generated_Source\PSoC5/Timer_Infrared.c **** {
 694:.\Generated_Source\PSoC5/Timer_Infrared.c ****     Timer_Infrared_CAP_COUNT = captureCount;
 695:.\Generated_Source\PSoC5/Timer_Infrared.c **** }
 696:.\Generated_Source\PSoC5/Timer_Infrared.c **** 
 697:.\Generated_Source\PSoC5/Timer_Infrared.c **** 
 698:.\Generated_Source\PSoC5/Timer_Infrared.c **** /*******************************************************************************
 699:.\Generated_Source\PSoC5/Timer_Infrared.c **** * Function Name: Timer_Infrared_ReadCaptureCount
 700:.\Generated_Source\PSoC5/Timer_Infrared.c **** ********************************************************************************
 701:.\Generated_Source\PSoC5/Timer_Infrared.c **** *
 702:.\Generated_Source\PSoC5/Timer_Infrared.c **** * Summary:
 703:.\Generated_Source\PSoC5/Timer_Infrared.c **** *  This function reads the capture count setting
 704:.\Generated_Source\PSoC5/Timer_Infrared.c **** *
 705:.\Generated_Source\PSoC5/Timer_Infrared.c **** * Parameters:
 706:.\Generated_Source\PSoC5/Timer_Infrared.c **** *  void
 707:.\Generated_Source\PSoC5/Timer_Infrared.c **** *
 708:.\Generated_Source\PSoC5/Timer_Infrared.c **** * Return:
 709:.\Generated_Source\PSoC5/Timer_Infrared.c **** *  Returns the Capture Count Setting
 710:.\Generated_Source\PSoC5/Timer_Infrared.c **** *
 711:.\Generated_Source\PSoC5/Timer_Infrared.c **** *******************************************************************************/
 712:.\Generated_Source\PSoC5/Timer_Infrared.c **** uint8 Timer_Infrared_ReadCaptureCount(void) 
 713:.\Generated_Source\PSoC5/Timer_Infrared.c **** {
 714:.\Generated_Source\PSoC5/Timer_Infrared.c ****     return Timer_Infrared_CAP_COUNT ;
 715:.\Generated_Source\PSoC5/Timer_Infrared.c **** }
 716:.\Generated_Source\PSoC5/Timer_Infrared.c **** #endif /* Timer_Infrared_UsingHWCaptureCounter */
 717:.\Generated_Source\PSoC5/Timer_Infrared.c **** 
 718:.\Generated_Source\PSoC5/Timer_Infrared.c **** 
 719:.\Generated_Source\PSoC5/Timer_Infrared.c **** /*******************************************************************************
 720:.\Generated_Source\PSoC5/Timer_Infrared.c **** * Function Name: Timer_Infrared_ClearFIFO
 721:.\Generated_Source\PSoC5/Timer_Infrared.c **** ********************************************************************************
 722:.\Generated_Source\PSoC5/Timer_Infrared.c **** *
 723:.\Generated_Source\PSoC5/Timer_Infrared.c **** * Summary:
 724:.\Generated_Source\PSoC5/Timer_Infrared.c **** *  This function clears all capture data from the capture FIFO
 725:.\Generated_Source\PSoC5/Timer_Infrared.c **** *
 726:.\Generated_Source\PSoC5/Timer_Infrared.c **** * Parameters:
 727:.\Generated_Source\PSoC5/Timer_Infrared.c **** *  void
 728:.\Generated_Source\PSoC5/Timer_Infrared.c **** *
 729:.\Generated_Source\PSoC5/Timer_Infrared.c **** * Return:
 730:.\Generated_Source\PSoC5/Timer_Infrared.c **** *  void
 731:.\Generated_Source\PSoC5/Timer_Infrared.c **** *
 732:.\Generated_Source\PSoC5/Timer_Infrared.c **** *******************************************************************************/
 733:.\Generated_Source\PSoC5/Timer_Infrared.c **** void Timer_Infrared_ClearFIFO(void) 
 734:.\Generated_Source\PSoC5/Timer_Infrared.c **** {
 620              		.loc 1 734 0
 621              		.cfi_startproc
 622              		@ args = 0, pretend = 0, frame = 0
 623              		@ frame_needed = 1, uses_anonymous_args = 0
 624 0000 80B5     		push	{r7, lr}
 625              	.LCFI36:
 626              		.cfi_def_cfa_offset 8
 627 0002 00AF     		add	r7, sp, #0
 628              		.cfi_offset 14, -4
 629              		.cfi_offset 7, -8
 630              	.LCFI37:
ARM GAS  C:\Users\dwguo\AppData\Local\Temp\ccNFeUnw.s 			page 25


 631              		.cfi_def_cfa_register 7
 735:.\Generated_Source\PSoC5/Timer_Infrared.c ****     while(Timer_Infrared_ReadStatusRegister() & Timer_Infrared_STATUS_FIFONEMP)
 632              		.loc 1 735 0
 633 0004 01E0     		b	.L33
 634              	.L34:
 736:.\Generated_Source\PSoC5/Timer_Infrared.c ****     {
 737:.\Generated_Source\PSoC5/Timer_Infrared.c ****         Timer_Infrared_ReadCapture();
 635              		.loc 1 737 0
 636 0006 FFF7FEFF 		bl	Timer_Infrared_ReadCapture
 637              	.L33:
 638              		.loc 1 735 0
 639 000a FFF7FEFF 		bl	Timer_Infrared_ReadStatusRegister
 640 000e 0346     		mov	r3, r0
 641 0010 03F00803 		and	r3, r3, #8
 642 0014 002B     		cmp	r3, #0
 643 0016 F6D1     		bne	.L34
 738:.\Generated_Source\PSoC5/Timer_Infrared.c ****     }
 739:.\Generated_Source\PSoC5/Timer_Infrared.c **** }
 644              		.loc 1 739 0
 645 0018 80BD     		pop	{r7, pc}
 646              		.cfi_endproc
 647              	.LFE15:
 648              		.size	Timer_Infrared_ClearFIFO, .-Timer_Infrared_ClearFIFO
 649 001a 00BF     		.text
 650              	.Letext0: