ARM GAS  C:\Users\dwguo\AppData\Local\Temp\cceIZtOF.s 			page 1


   1              		.syntax unified
   2              		.cpu cortex-m3
   3              		.fpu softvfp
   4              		.eabi_attribute 20, 1
   5              		.eabi_attribute 21, 1
   6              		.eabi_attribute 23, 3
   7              		.eabi_attribute 24, 1
   8              		.eabi_attribute 25, 1
   9              		.eabi_attribute 26, 1
  10              		.eabi_attribute 30, 6
  11              		.eabi_attribute 18, 4
  12              		.thumb
  13              		.file	"UART.c"
  20 0000 0D030000 		.text
  20      02005D00 
  20      00000201 
  20      FB0E0D00 
  20      01010101 
  21              	.Ltext0:
  22              		.cfi_sections	.debug_frame
  23              		.comm	UART_rxBuffer,5,4
  24              		.global	UART_rxBufferRead
  25              		.bss
  26              		.type	UART_rxBufferRead, %object
  27              		.size	UART_rxBufferRead, 1
  28              	UART_rxBufferRead:
  29 0000 00       		.space	1
  30              		.global	UART_rxBufferWrite
  31              		.type	UART_rxBufferWrite, %object
  32              		.size	UART_rxBufferWrite, 1
  33              	UART_rxBufferWrite:
  34 0001 00       		.space	1
  35              		.global	UART_rxBufferLoopDetect
  36              		.type	UART_rxBufferLoopDetect, %object
  37              		.size	UART_rxBufferLoopDetect, 1
  38              	UART_rxBufferLoopDetect:
  39 0002 00       		.space	1
  40              		.global	UART_rxBufferOverflow
  41              		.type	UART_rxBufferOverflow, %object
  42              		.size	UART_rxBufferOverflow, 1
  43              	UART_rxBufferOverflow:
  44 0003 00       		.space	1
  45              		.global	UART_initVar
  46              		.type	UART_initVar, %object
  47              		.size	UART_initVar, 1
  48              	UART_initVar:
  49 0004 00       		.space	1
  50              		.section	.text.UART_Start,"ax",%progbits
  51              		.align	2
  52              		.global	UART_Start
  53              		.thumb
ARM GAS  C:\Users\dwguo\AppData\Local\Temp\cceIZtOF.s 			page 2


  54              		.thumb_func
  55              		.type	UART_Start, %function
  56              	UART_Start:
  57              	.LFB0:
  58              		.file 1 ".\\Generated_Source\\PSoC5\\UART.c"
   1:.\Generated_Source\PSoC5/UART.c **** /*******************************************************************************
   2:.\Generated_Source\PSoC5/UART.c **** * File Name: UART.c
   3:.\Generated_Source\PSoC5/UART.c **** * Version 2.20
   4:.\Generated_Source\PSoC5/UART.c **** *
   5:.\Generated_Source\PSoC5/UART.c **** * Description:
   6:.\Generated_Source\PSoC5/UART.c **** *  This file provides all API functionality of the UART component
   7:.\Generated_Source\PSoC5/UART.c **** *
   8:.\Generated_Source\PSoC5/UART.c **** * Note:
   9:.\Generated_Source\PSoC5/UART.c **** *
  10:.\Generated_Source\PSoC5/UART.c **** ********************************************************************************
  11:.\Generated_Source\PSoC5/UART.c **** * Copyright 2008-2012, Cypress Semiconductor Corporation.  All rights reserved.
  12:.\Generated_Source\PSoC5/UART.c **** * You may use this file only in accordance with the license, terms, conditions, 
  13:.\Generated_Source\PSoC5/UART.c **** * disclaimers, and limitations in the end user license agreement accompanying 
  14:.\Generated_Source\PSoC5/UART.c **** * the software package with which this file was provided.
  15:.\Generated_Source\PSoC5/UART.c **** *******************************************************************************/
  16:.\Generated_Source\PSoC5/UART.c **** 
  17:.\Generated_Source\PSoC5/UART.c **** #include "UART.h"
  18:.\Generated_Source\PSoC5/UART.c **** #include "CyLib.h"
  19:.\Generated_Source\PSoC5/UART.c **** 
  20:.\Generated_Source\PSoC5/UART.c **** 
  21:.\Generated_Source\PSoC5/UART.c **** /***************************************
  22:.\Generated_Source\PSoC5/UART.c **** * Global data allocation
  23:.\Generated_Source\PSoC5/UART.c **** ***************************************/
  24:.\Generated_Source\PSoC5/UART.c **** 
  25:.\Generated_Source\PSoC5/UART.c **** #if( UART_TX_ENABLED && (UART_TXBUFFERSIZE > UART_FIFO_LENGTH))
  26:.\Generated_Source\PSoC5/UART.c ****     volatile uint8 UART_txBuffer[UART_TXBUFFERSIZE];
  27:.\Generated_Source\PSoC5/UART.c ****     volatile uint8 UART_txBufferRead = 0u;
  28:.\Generated_Source\PSoC5/UART.c ****     uint8 UART_txBufferWrite = 0u;
  29:.\Generated_Source\PSoC5/UART.c **** #endif /* End UART_TX_ENABLED */
  30:.\Generated_Source\PSoC5/UART.c **** #if( ( UART_RX_ENABLED || UART_HD_ENABLED ) && \
  31:.\Generated_Source\PSoC5/UART.c ****      (UART_RXBUFFERSIZE > UART_FIFO_LENGTH) )
  32:.\Generated_Source\PSoC5/UART.c ****     volatile uint8 UART_rxBuffer[UART_RXBUFFERSIZE];
  33:.\Generated_Source\PSoC5/UART.c ****     volatile uint8 UART_rxBufferRead = 0u;
  34:.\Generated_Source\PSoC5/UART.c ****     volatile uint8 UART_rxBufferWrite = 0u;
  35:.\Generated_Source\PSoC5/UART.c ****     volatile uint8 UART_rxBufferLoopDetect = 0u;
  36:.\Generated_Source\PSoC5/UART.c ****     volatile uint8 UART_rxBufferOverflow = 0u;
  37:.\Generated_Source\PSoC5/UART.c ****     #if (UART_RXHW_ADDRESS_ENABLED)
  38:.\Generated_Source\PSoC5/UART.c ****         volatile uint8 UART_rxAddressMode = UART_RXADDRESSMODE;
  39:.\Generated_Source\PSoC5/UART.c ****         volatile uint8 UART_rxAddressDetected = 0u;
  40:.\Generated_Source\PSoC5/UART.c ****     #endif /* End EnableHWAddress */    
  41:.\Generated_Source\PSoC5/UART.c **** #endif /* End UART_RX_ENABLED */
  42:.\Generated_Source\PSoC5/UART.c **** 
  43:.\Generated_Source\PSoC5/UART.c **** 
  44:.\Generated_Source\PSoC5/UART.c **** /***************************************
  45:.\Generated_Source\PSoC5/UART.c **** * Local data allocation
  46:.\Generated_Source\PSoC5/UART.c **** ***************************************/
  47:.\Generated_Source\PSoC5/UART.c **** 
  48:.\Generated_Source\PSoC5/UART.c **** uint8 UART_initVar = 0u;
  49:.\Generated_Source\PSoC5/UART.c **** 
  50:.\Generated_Source\PSoC5/UART.c **** 
  51:.\Generated_Source\PSoC5/UART.c **** /*******************************************************************************
  52:.\Generated_Source\PSoC5/UART.c **** * Function Name: UART_Start
ARM GAS  C:\Users\dwguo\AppData\Local\Temp\cceIZtOF.s 			page 3


  53:.\Generated_Source\PSoC5/UART.c **** ********************************************************************************
  54:.\Generated_Source\PSoC5/UART.c **** *
  55:.\Generated_Source\PSoC5/UART.c **** * Summary:
  56:.\Generated_Source\PSoC5/UART.c **** *  Initialize and Enable the UART component.
  57:.\Generated_Source\PSoC5/UART.c **** *  Enable the clock input to enable operation.
  58:.\Generated_Source\PSoC5/UART.c **** *
  59:.\Generated_Source\PSoC5/UART.c **** * Parameters:
  60:.\Generated_Source\PSoC5/UART.c **** *  None.
  61:.\Generated_Source\PSoC5/UART.c **** *
  62:.\Generated_Source\PSoC5/UART.c **** * Return:
  63:.\Generated_Source\PSoC5/UART.c **** *  None.
  64:.\Generated_Source\PSoC5/UART.c **** *
  65:.\Generated_Source\PSoC5/UART.c **** * Global variables:
  66:.\Generated_Source\PSoC5/UART.c **** *  The UART_intiVar variable is used to indicate initial 
  67:.\Generated_Source\PSoC5/UART.c **** *  configuration of this component. The variable is initialized to zero (0u) 
  68:.\Generated_Source\PSoC5/UART.c **** *  and set to one (1u) the first time UART_Start() is called. This allows for 
  69:.\Generated_Source\PSoC5/UART.c **** *  component initialization without re-initialization in all subsequent calls 
  70:.\Generated_Source\PSoC5/UART.c **** *  to the UART_Start() routine. 
  71:.\Generated_Source\PSoC5/UART.c **** *
  72:.\Generated_Source\PSoC5/UART.c **** * Reentrant:
  73:.\Generated_Source\PSoC5/UART.c **** *  No.
  74:.\Generated_Source\PSoC5/UART.c **** *
  75:.\Generated_Source\PSoC5/UART.c **** *******************************************************************************/
  76:.\Generated_Source\PSoC5/UART.c **** void UART_Start(void) 
  77:.\Generated_Source\PSoC5/UART.c **** {
  59              		.loc 1 77 0
  60              		.cfi_startproc
  61              		@ args = 0, pretend = 0, frame = 0
  62              		@ frame_needed = 1, uses_anonymous_args = 0
  63 0000 80B5     		push	{r7, lr}
  64              	.LCFI0:
  65              		.cfi_def_cfa_offset 8
  66 0002 00AF     		add	r7, sp, #0
  67              		.cfi_offset 14, -4
  68              		.cfi_offset 7, -8
  69              	.LCFI1:
  70              		.cfi_def_cfa_register 7
  78:.\Generated_Source\PSoC5/UART.c ****     /* If not Initialized then initialize all required hardware and software */
  79:.\Generated_Source\PSoC5/UART.c ****     if(UART_initVar == 0u)
  71              		.loc 1 79 0
  72 0004 40F20003 		movw	r3, #:lower16:UART_initVar
  73 0008 C0F20003 		movt	r3, #:upper16:UART_initVar
  74 000c 1B78     		ldrb	r3, [r3, #0]	@ zero_extendqisi2
  75 000e 002B     		cmp	r3, #0
  76 0010 08D1     		bne	.L2
  80:.\Generated_Source\PSoC5/UART.c ****     {
  81:.\Generated_Source\PSoC5/UART.c ****         UART_Init();
  77              		.loc 1 81 0
  78 0012 FFF7FEFF 		bl	UART_Init
  82:.\Generated_Source\PSoC5/UART.c ****         UART_initVar = 1u;
  79              		.loc 1 82 0
  80 0016 40F20003 		movw	r3, #:lower16:UART_initVar
  81 001a C0F20003 		movt	r3, #:upper16:UART_initVar
  82 001e 4FF00102 		mov	r2, #1
  83 0022 1A70     		strb	r2, [r3, #0]
  84              	.L2:
  83:.\Generated_Source\PSoC5/UART.c ****     }
ARM GAS  C:\Users\dwguo\AppData\Local\Temp\cceIZtOF.s 			page 4


  84:.\Generated_Source\PSoC5/UART.c ****     UART_Enable();
  85              		.loc 1 84 0
  86 0024 FFF7FEFF 		bl	UART_Enable
  85:.\Generated_Source\PSoC5/UART.c **** }
  87              		.loc 1 85 0
  88 0028 80BD     		pop	{r7, pc}
  89              		.cfi_endproc
  90              	.LFE0:
  91              		.size	UART_Start, .-UART_Start
  92 002a 00BF     		.section	.text.UART_Init,"ax",%progbits
  93              		.align	2
  94              		.global	UART_Init
  95              		.thumb
  96              		.thumb_func
  97              		.type	UART_Init, %function
  98              	UART_Init:
  99              	.LFB1:
  86:.\Generated_Source\PSoC5/UART.c **** 
  87:.\Generated_Source\PSoC5/UART.c **** 
  88:.\Generated_Source\PSoC5/UART.c **** /*******************************************************************************
  89:.\Generated_Source\PSoC5/UART.c **** * Function Name: UART_Init
  90:.\Generated_Source\PSoC5/UART.c **** ********************************************************************************
  91:.\Generated_Source\PSoC5/UART.c **** *
  92:.\Generated_Source\PSoC5/UART.c **** * Summary:
  93:.\Generated_Source\PSoC5/UART.c **** *  Initialize component's parameters to the parameters set by user in the
  94:.\Generated_Source\PSoC5/UART.c **** *  customizer of the component placed onto schematic. Usually called in
  95:.\Generated_Source\PSoC5/UART.c **** *  UART_Start().
  96:.\Generated_Source\PSoC5/UART.c **** *
  97:.\Generated_Source\PSoC5/UART.c **** * Parameters:
  98:.\Generated_Source\PSoC5/UART.c **** *  None.
  99:.\Generated_Source\PSoC5/UART.c **** *
 100:.\Generated_Source\PSoC5/UART.c **** * Return:
 101:.\Generated_Source\PSoC5/UART.c **** *  None.
 102:.\Generated_Source\PSoC5/UART.c **** *
 103:.\Generated_Source\PSoC5/UART.c **** *******************************************************************************/
 104:.\Generated_Source\PSoC5/UART.c **** void UART_Init(void) 
 105:.\Generated_Source\PSoC5/UART.c **** {
 100              		.loc 1 105 0
 101              		.cfi_startproc
 102              		@ args = 0, pretend = 0, frame = 0
 103              		@ frame_needed = 1, uses_anonymous_args = 0
 104 0000 80B5     		push	{r7, lr}
 105              	.LCFI2:
 106              		.cfi_def_cfa_offset 8
 107 0002 00AF     		add	r7, sp, #0
 108              		.cfi_offset 14, -4
 109              		.cfi_offset 7, -8
 110              	.LCFI3:
 111              		.cfi_def_cfa_register 7
 106:.\Generated_Source\PSoC5/UART.c ****     #if(UART_RX_ENABLED || UART_HD_ENABLED)
 107:.\Generated_Source\PSoC5/UART.c **** 
 108:.\Generated_Source\PSoC5/UART.c ****         #if(UART_RX_INTERRUPT_ENABLED && (UART_RXBUFFERSIZE > UART_FIFO_LENGTH))
 109:.\Generated_Source\PSoC5/UART.c ****             /* Set the RX Interrupt. */
 110:.\Generated_Source\PSoC5/UART.c ****             CyIntSetVector(UART_RX_VECT_NUM,   UART_RXISR);
 112              		.loc 1 110 0
 113 0004 4FF00000 		mov	r0, #0
 114 0008 40F20001 		movw	r1, #:lower16:UART_RXISR
ARM GAS  C:\Users\dwguo\AppData\Local\Temp\cceIZtOF.s 			page 5


 115 000c C0F20001 		movt	r1, #:upper16:UART_RXISR
 116 0010 FFF7FEFF 		bl	CyIntSetVector
 111:.\Generated_Source\PSoC5/UART.c ****             CyIntSetPriority(UART_RX_VECT_NUM, UART_RX_PRIOR_NUM);
 117              		.loc 1 111 0
 118 0014 4FF00000 		mov	r0, #0
 119 0018 4FF00701 		mov	r1, #7
 120 001c FFF7FEFF 		bl	CyIntSetPriority
 112:.\Generated_Source\PSoC5/UART.c ****         #endif /* End UART_RX_INTERRUPT_ENABLED */
 113:.\Generated_Source\PSoC5/UART.c **** 
 114:.\Generated_Source\PSoC5/UART.c ****         #if (UART_RXHW_ADDRESS_ENABLED)
 115:.\Generated_Source\PSoC5/UART.c ****             UART_SetRxAddressMode(UART_RXAddressMode);
 116:.\Generated_Source\PSoC5/UART.c ****             UART_SetRxAddress1(UART_RXHWADDRESS1);
 117:.\Generated_Source\PSoC5/UART.c ****             UART_SetRxAddress2(UART_RXHWADDRESS2);
 118:.\Generated_Source\PSoC5/UART.c ****         #endif /* End UART_RXHW_ADDRESS_ENABLED */
 119:.\Generated_Source\PSoC5/UART.c **** 
 120:.\Generated_Source\PSoC5/UART.c ****         /* Configure the Initial RX interrupt mask */
 121:.\Generated_Source\PSoC5/UART.c ****         UART_RXSTATUS_MASK_REG  = UART_INIT_RX_INTERRUPTS_MASK;
 121              		.loc 1 121 0
 122 0020 46F28A53 		movw	r3, #:lower16:1073767818
 123 0024 C4F20003 		movt	r3, #:upper16:1073767818
 124 0028 4FF02002 		mov	r2, #32
 125 002c 1A70     		strb	r2, [r3, #0]
 122:.\Generated_Source\PSoC5/UART.c ****     #endif /* End UART_RX_ENABLED || UART_HD_ENABLED*/
 123:.\Generated_Source\PSoC5/UART.c **** 
 124:.\Generated_Source\PSoC5/UART.c ****     #if(UART_TX_ENABLED)
 125:.\Generated_Source\PSoC5/UART.c ****         #if(UART_TX_INTERRUPT_ENABLED && (UART_TXBUFFERSIZE > UART_FIFO_LENGTH))
 126:.\Generated_Source\PSoC5/UART.c ****             /* Set the TX Interrupt. */
 127:.\Generated_Source\PSoC5/UART.c ****             CyIntSetVector(UART_TX_VECT_NUM,   UART_TXISR);
 128:.\Generated_Source\PSoC5/UART.c ****             CyIntSetPriority(UART_TX_VECT_NUM, UART_TX_PRIOR_NUM);
 129:.\Generated_Source\PSoC5/UART.c ****         #endif /* End UART_TX_INTERRUPT_ENABLED */
 130:.\Generated_Source\PSoC5/UART.c **** 
 131:.\Generated_Source\PSoC5/UART.c ****         /* Write Counter Value for TX Bit Clk Generator*/
 132:.\Generated_Source\PSoC5/UART.c ****         #if(UART_TXCLKGEN_DP)
 133:.\Generated_Source\PSoC5/UART.c ****             UART_TXBITCLKGEN_CTR_REG = UART_BIT_CENTER;
 126              		.loc 1 133 0
 127 002e 46F22653 		movw	r3, #:lower16:1073767718
 128 0032 C4F20003 		movt	r3, #:upper16:1073767718
 129 0036 4FF00702 		mov	r2, #7
 130 003a 1A70     		strb	r2, [r3, #0]
 134:.\Generated_Source\PSoC5/UART.c ****             UART_TXBITCLKTX_COMPLETE_REG = (UART_NUMBER_OF_DATA_BITS + \
 131              		.loc 1 134 0
 132 003c 46F23653 		movw	r3, #:lower16:1073767734
 133 0040 C4F20003 		movt	r3, #:upper16:1073767734
 134 0044 4FF04802 		mov	r2, #72
 135 0048 1A70     		strb	r2, [r3, #0]
 135:.\Generated_Source\PSoC5/UART.c ****                                                     UART_NUMBER_OF_START_BIT) * \
 136:.\Generated_Source\PSoC5/UART.c ****                                                     UART_OVER_SAMPLE_COUNT;
 137:.\Generated_Source\PSoC5/UART.c ****         #else
 138:.\Generated_Source\PSoC5/UART.c ****             UART_TXBITCTR_COUNTER_REG = (UART_NUMBER_OF_DATA_BITS + \
 139:.\Generated_Source\PSoC5/UART.c ****                                                     UART_NUMBER_OF_START_BIT) * \
 140:.\Generated_Source\PSoC5/UART.c ****                                                     UART_OVER_SAMPLE_8;
 141:.\Generated_Source\PSoC5/UART.c ****         #endif /* End UART_TXCLKGEN_DP */
 142:.\Generated_Source\PSoC5/UART.c **** 
 143:.\Generated_Source\PSoC5/UART.c ****         /* Configure the Initial TX interrupt mask */
 144:.\Generated_Source\PSoC5/UART.c ****         #if(UART_TX_INTERRUPT_ENABLED && (UART_TXBUFFERSIZE > UART_FIFO_LENGTH))
 145:.\Generated_Source\PSoC5/UART.c ****             UART_TXSTATUS_MASK_REG = UART_TX_STS_FIFO_EMPTY;
 146:.\Generated_Source\PSoC5/UART.c ****         #else
ARM GAS  C:\Users\dwguo\AppData\Local\Temp\cceIZtOF.s 			page 6


 147:.\Generated_Source\PSoC5/UART.c ****             UART_TXSTATUS_MASK_REG = UART_INIT_TX_INTERRUPTS_MASK;
 136              		.loc 1 147 0
 137 004a 46F28243 		movw	r3, #:lower16:1073767554
 138 004e C4F20003 		movt	r3, #:upper16:1073767554
 139 0052 4FF00202 		mov	r2, #2
 140 0056 1A70     		strb	r2, [r3, #0]
 148:.\Generated_Source\PSoC5/UART.c ****         #endif /*End UART_TX_INTERRUPT_ENABLED*/
 149:.\Generated_Source\PSoC5/UART.c ****         
 150:.\Generated_Source\PSoC5/UART.c ****     #endif /* End UART_TX_ENABLED */
 151:.\Generated_Source\PSoC5/UART.c **** 
 152:.\Generated_Source\PSoC5/UART.c ****     #if(UART_PARITY_TYPE_SW)  /* Write Parity to Control Register */
 153:.\Generated_Source\PSoC5/UART.c ****         UART_WriteControlRegister( \
 154:.\Generated_Source\PSoC5/UART.c ****             (UART_ReadControlRegister() & ~UART_CTRL_PARITY_TYPE_MASK) | \
 155:.\Generated_Source\PSoC5/UART.c ****             (UART_PARITY_TYPE << UART_CTRL_PARITY_TYPE0_SHIFT) );
 156:.\Generated_Source\PSoC5/UART.c ****     #endif /* End UART_PARITY_TYPE_SW */
 157:.\Generated_Source\PSoC5/UART.c **** }
 141              		.loc 1 157 0
 142 0058 80BD     		pop	{r7, pc}
 143              		.cfi_endproc
 144              	.LFE1:
 145              		.size	UART_Init, .-UART_Init
 146 005a 00BF     		.section	.text.UART_Enable,"ax",%progbits
 147              		.align	2
 148              		.global	UART_Enable
 149              		.thumb
 150              		.thumb_func
 151              		.type	UART_Enable, %function
 152              	UART_Enable:
 153              	.LFB2:
 158:.\Generated_Source\PSoC5/UART.c **** 
 159:.\Generated_Source\PSoC5/UART.c **** 
 160:.\Generated_Source\PSoC5/UART.c **** /*******************************************************************************
 161:.\Generated_Source\PSoC5/UART.c **** * Function Name: UART_Enable
 162:.\Generated_Source\PSoC5/UART.c **** ********************************************************************************
 163:.\Generated_Source\PSoC5/UART.c **** *
 164:.\Generated_Source\PSoC5/UART.c **** * Summary:
 165:.\Generated_Source\PSoC5/UART.c **** *  Enables the UART block operation
 166:.\Generated_Source\PSoC5/UART.c **** *
 167:.\Generated_Source\PSoC5/UART.c **** * Parameters:
 168:.\Generated_Source\PSoC5/UART.c **** *  None.
 169:.\Generated_Source\PSoC5/UART.c **** *
 170:.\Generated_Source\PSoC5/UART.c **** * Return:
 171:.\Generated_Source\PSoC5/UART.c **** *  None.
 172:.\Generated_Source\PSoC5/UART.c **** *
 173:.\Generated_Source\PSoC5/UART.c **** * Global Variables:
 174:.\Generated_Source\PSoC5/UART.c **** *  UART_rxAddressDetected - set to initial state (0).
 175:.\Generated_Source\PSoC5/UART.c **** *
 176:.\Generated_Source\PSoC5/UART.c **** *******************************************************************************/
 177:.\Generated_Source\PSoC5/UART.c **** void UART_Enable(void) 
 178:.\Generated_Source\PSoC5/UART.c **** {
 154              		.loc 1 178 0
 155              		.cfi_startproc
 156              		@ args = 0, pretend = 0, frame = 8
 157              		@ frame_needed = 1, uses_anonymous_args = 0
 158 0000 80B5     		push	{r7, lr}
 159              	.LCFI4:
 160              		.cfi_def_cfa_offset 8
ARM GAS  C:\Users\dwguo\AppData\Local\Temp\cceIZtOF.s 			page 7


 161 0002 82B0     		sub	sp, sp, #8
 162              	.LCFI5:
 163              		.cfi_def_cfa_offset 16
 164 0004 00AF     		add	r7, sp, #0
 165              		.cfi_offset 14, -4
 166              		.cfi_offset 7, -8
 167              	.LCFI6:
 168              		.cfi_def_cfa_register 7
 179:.\Generated_Source\PSoC5/UART.c ****     uint8 enableInterrupts;
 180:.\Generated_Source\PSoC5/UART.c ****     enableInterrupts = CyEnterCriticalSection();
 169              		.loc 1 180 0
 170 0006 FFF7FEFF 		bl	CyEnterCriticalSection
 171 000a 0346     		mov	r3, r0
 172 000c FB71     		strb	r3, [r7, #7]
 181:.\Generated_Source\PSoC5/UART.c ****     
 182:.\Generated_Source\PSoC5/UART.c ****     #if(UART_RX_ENABLED || UART_HD_ENABLED)
 183:.\Generated_Source\PSoC5/UART.c ****         /*RX Counter (Count7) Enable */
 184:.\Generated_Source\PSoC5/UART.c ****         UART_RXBITCTR_CONTROL_REG |= UART_CNTR_ENABLE;
 173              		.loc 1 184 0
 174 000e 46F29B53 		movw	r3, #:lower16:1073767835
 175 0012 C4F20003 		movt	r3, #:upper16:1073767835
 176 0016 46F29B52 		movw	r2, #:lower16:1073767835
 177 001a C4F20002 		movt	r2, #:upper16:1073767835
 178 001e 1278     		ldrb	r2, [r2, #0]
 179 0020 D2B2     		uxtb	r2, r2
 180 0022 42F02002 		orr	r2, r2, #32
 181 0026 D2B2     		uxtb	r2, r2
 182 0028 1A70     		strb	r2, [r3, #0]
 185:.\Generated_Source\PSoC5/UART.c ****         /* Enable the RX Interrupt. */
 186:.\Generated_Source\PSoC5/UART.c ****         UART_RXSTATUS_ACTL_REG  |= UART_INT_ENABLE;
 183              		.loc 1 186 0
 184 002a 46F29A53 		movw	r3, #:lower16:1073767834
 185 002e C4F20003 		movt	r3, #:upper16:1073767834
 186 0032 46F29A52 		movw	r2, #:lower16:1073767834
 187 0036 C4F20002 		movt	r2, #:upper16:1073767834
 188 003a 1278     		ldrb	r2, [r2, #0]
 189 003c D2B2     		uxtb	r2, r2
 190 003e 42F01002 		orr	r2, r2, #16
 191 0042 D2B2     		uxtb	r2, r2
 192 0044 1A70     		strb	r2, [r3, #0]
 187:.\Generated_Source\PSoC5/UART.c ****         #if(UART_RX_INTERRUPT_ENABLED && (UART_RXBUFFERSIZE > UART_FIFO_LENGTH))
 188:.\Generated_Source\PSoC5/UART.c ****             CyIntEnable(UART_RX_VECT_NUM);
 193              		.loc 1 188 0
 194 0046 4FF00000 		mov	r0, #0
 195 004a FFF7FEFF 		bl	CyIntEnable
 189:.\Generated_Source\PSoC5/UART.c ****             #if (UART_RXHW_ADDRESS_ENABLED)
 190:.\Generated_Source\PSoC5/UART.c ****                 UART_rxAddressDetected = 0u;
 191:.\Generated_Source\PSoC5/UART.c ****             #endif /* End UART_RXHW_ADDRESS_ENABLED */
 192:.\Generated_Source\PSoC5/UART.c ****         #endif /* End UART_RX_INTERRUPT_ENABLED */
 193:.\Generated_Source\PSoC5/UART.c ****     #endif /* End UART_RX_ENABLED || UART_HD_ENABLED*/
 194:.\Generated_Source\PSoC5/UART.c **** 
 195:.\Generated_Source\PSoC5/UART.c ****     #if(UART_TX_ENABLED)
 196:.\Generated_Source\PSoC5/UART.c ****         /*TX Counter (DP/Count7) Enable */
 197:.\Generated_Source\PSoC5/UART.c ****         #if(!UART_TXCLKGEN_DP)
 198:.\Generated_Source\PSoC5/UART.c ****             UART_TXBITCTR_CONTROL_REG |= UART_CNTR_ENABLE;
 199:.\Generated_Source\PSoC5/UART.c ****         #endif /* End UART_TXCLKGEN_DP */
 200:.\Generated_Source\PSoC5/UART.c ****         /* Enable the TX Interrupt. */
ARM GAS  C:\Users\dwguo\AppData\Local\Temp\cceIZtOF.s 			page 8


 201:.\Generated_Source\PSoC5/UART.c ****         UART_TXSTATUS_ACTL_REG |= UART_INT_ENABLE;
 196              		.loc 1 201 0
 197 004e 46F29243 		movw	r3, #:lower16:1073767570
 198 0052 C4F20003 		movt	r3, #:upper16:1073767570
 199 0056 46F29242 		movw	r2, #:lower16:1073767570
 200 005a C4F20002 		movt	r2, #:upper16:1073767570
 201 005e 1278     		ldrb	r2, [r2, #0]
 202 0060 D2B2     		uxtb	r2, r2
 203 0062 42F01002 		orr	r2, r2, #16
 204 0066 D2B2     		uxtb	r2, r2
 205 0068 1A70     		strb	r2, [r3, #0]
 202:.\Generated_Source\PSoC5/UART.c ****         #if(UART_TX_INTERRUPT_ENABLED && (UART_TXBUFFERSIZE > UART_FIFO_LENGTH))
 203:.\Generated_Source\PSoC5/UART.c ****             CyIntEnable(UART_TX_VECT_NUM);
 204:.\Generated_Source\PSoC5/UART.c ****         #endif /* End UART_TX_INTERRUPT_ENABLED*/
 205:.\Generated_Source\PSoC5/UART.c ****      #endif /* End UART_TX_ENABLED */
 206:.\Generated_Source\PSoC5/UART.c **** 
 207:.\Generated_Source\PSoC5/UART.c ****     #if(UART_INTERNAL_CLOCK_USED)
 208:.\Generated_Source\PSoC5/UART.c ****         /* Set the bit to enable the clock. */
 209:.\Generated_Source\PSoC5/UART.c ****         UART_INTCLOCK_CLKEN_REG |= UART_INTCLOCK_CLKEN_MASK;
 206              		.loc 1 209 0
 207 006a 44F2A233 		movw	r3, #:lower16:1073759138
 208 006e C4F20003 		movt	r3, #:upper16:1073759138
 209 0072 44F2A232 		movw	r2, #:lower16:1073759138
 210 0076 C4F20002 		movt	r2, #:upper16:1073759138
 211 007a 1278     		ldrb	r2, [r2, #0]
 212 007c D2B2     		uxtb	r2, r2
 213 007e 42F00402 		orr	r2, r2, #4
 214 0082 D2B2     		uxtb	r2, r2
 215 0084 1A70     		strb	r2, [r3, #0]
 210:.\Generated_Source\PSoC5/UART.c ****     #endif /* End UART_INTERNAL_CLOCK_USED */
 211:.\Generated_Source\PSoC5/UART.c ****     
 212:.\Generated_Source\PSoC5/UART.c ****     CyExitCriticalSection(enableInterrupts);
 216              		.loc 1 212 0
 217 0086 FB79     		ldrb	r3, [r7, #7]	@ zero_extendqisi2
 218 0088 1846     		mov	r0, r3
 219 008a FFF7FEFF 		bl	CyExitCriticalSection
 213:.\Generated_Source\PSoC5/UART.c **** }
 220              		.loc 1 213 0
 221 008e 07F10807 		add	r7, r7, #8
 222 0092 BD46     		mov	sp, r7
 223 0094 80BD     		pop	{r7, pc}
 224              		.cfi_endproc
 225              	.LFE2:
 226              		.size	UART_Enable, .-UART_Enable
 227 0096 00BF     		.section	.text.UART_Stop,"ax",%progbits
 228              		.align	2
 229              		.global	UART_Stop
 230              		.thumb
 231              		.thumb_func
 232              		.type	UART_Stop, %function
 233              	UART_Stop:
 234              	.LFB3:
 214:.\Generated_Source\PSoC5/UART.c **** 
 215:.\Generated_Source\PSoC5/UART.c **** 
 216:.\Generated_Source\PSoC5/UART.c **** /*******************************************************************************
 217:.\Generated_Source\PSoC5/UART.c **** * Function Name: UART_Stop
 218:.\Generated_Source\PSoC5/UART.c **** ********************************************************************************
ARM GAS  C:\Users\dwguo\AppData\Local\Temp\cceIZtOF.s 			page 9


 219:.\Generated_Source\PSoC5/UART.c **** *
 220:.\Generated_Source\PSoC5/UART.c **** * Summary:
 221:.\Generated_Source\PSoC5/UART.c **** *  Disable the UART component
 222:.\Generated_Source\PSoC5/UART.c **** *
 223:.\Generated_Source\PSoC5/UART.c **** * Parameters:
 224:.\Generated_Source\PSoC5/UART.c **** *  None.
 225:.\Generated_Source\PSoC5/UART.c **** *
 226:.\Generated_Source\PSoC5/UART.c **** * Return:
 227:.\Generated_Source\PSoC5/UART.c **** *  None.
 228:.\Generated_Source\PSoC5/UART.c **** *
 229:.\Generated_Source\PSoC5/UART.c **** *******************************************************************************/
 230:.\Generated_Source\PSoC5/UART.c **** void UART_Stop(void) 
 231:.\Generated_Source\PSoC5/UART.c **** {
 235              		.loc 1 231 0
 236              		.cfi_startproc
 237              		@ args = 0, pretend = 0, frame = 8
 238              		@ frame_needed = 1, uses_anonymous_args = 0
 239 0000 80B5     		push	{r7, lr}
 240              	.LCFI7:
 241              		.cfi_def_cfa_offset 8
 242 0002 82B0     		sub	sp, sp, #8
 243              	.LCFI8:
 244              		.cfi_def_cfa_offset 16
 245 0004 00AF     		add	r7, sp, #0
 246              		.cfi_offset 14, -4
 247              		.cfi_offset 7, -8
 248              	.LCFI9:
 249              		.cfi_def_cfa_register 7
 232:.\Generated_Source\PSoC5/UART.c ****     uint8 enableInterrupts;
 233:.\Generated_Source\PSoC5/UART.c ****     enableInterrupts = CyEnterCriticalSection();
 250              		.loc 1 233 0
 251 0006 FFF7FEFF 		bl	CyEnterCriticalSection
 252 000a 0346     		mov	r3, r0
 253 000c FB71     		strb	r3, [r7, #7]
 234:.\Generated_Source\PSoC5/UART.c **** 
 235:.\Generated_Source\PSoC5/UART.c ****     /*Write Bit Counter Disable */
 236:.\Generated_Source\PSoC5/UART.c ****     #if(UART_RX_ENABLED || UART_HD_ENABLED)
 237:.\Generated_Source\PSoC5/UART.c ****         UART_RXBITCTR_CONTROL_REG &= ~UART_CNTR_ENABLE;
 254              		.loc 1 237 0
 255 000e 46F29B53 		movw	r3, #:lower16:1073767835
 256 0012 C4F20003 		movt	r3, #:upper16:1073767835
 257 0016 46F29B52 		movw	r2, #:lower16:1073767835
 258 001a C4F20002 		movt	r2, #:upper16:1073767835
 259 001e 1278     		ldrb	r2, [r2, #0]
 260 0020 D2B2     		uxtb	r2, r2
 261 0022 02F0DF02 		and	r2, r2, #223
 262 0026 1A70     		strb	r2, [r3, #0]
 238:.\Generated_Source\PSoC5/UART.c ****     #endif /* End UART_RX_ENABLED */
 239:.\Generated_Source\PSoC5/UART.c **** 
 240:.\Generated_Source\PSoC5/UART.c ****     #if(UART_TX_ENABLED)
 241:.\Generated_Source\PSoC5/UART.c ****         #if(!UART_TXCLKGEN_DP)
 242:.\Generated_Source\PSoC5/UART.c ****             UART_TXBITCTR_CONTROL_REG &= ~UART_CNTR_ENABLE;
 243:.\Generated_Source\PSoC5/UART.c ****         #endif /* End UART_TXCLKGEN_DP */
 244:.\Generated_Source\PSoC5/UART.c ****     #endif /* UART_TX_ENABLED */
 245:.\Generated_Source\PSoC5/UART.c **** 
 246:.\Generated_Source\PSoC5/UART.c ****     #if(UART_INTERNAL_CLOCK_USED)
 247:.\Generated_Source\PSoC5/UART.c ****         /* Clear the bit to enable the clock. */
ARM GAS  C:\Users\dwguo\AppData\Local\Temp\cceIZtOF.s 			page 10


 248:.\Generated_Source\PSoC5/UART.c ****         UART_INTCLOCK_CLKEN_REG &= ~UART_INTCLOCK_CLKEN_MASK;
 263              		.loc 1 248 0
 264 0028 44F2A233 		movw	r3, #:lower16:1073759138
 265 002c C4F20003 		movt	r3, #:upper16:1073759138
 266 0030 44F2A232 		movw	r2, #:lower16:1073759138
 267 0034 C4F20002 		movt	r2, #:upper16:1073759138
 268 0038 1278     		ldrb	r2, [r2, #0]
 269 003a D2B2     		uxtb	r2, r2
 270 003c 02F0FB02 		and	r2, r2, #251
 271 0040 1A70     		strb	r2, [r3, #0]
 249:.\Generated_Source\PSoC5/UART.c ****     #endif /* End UART_INTERNAL_CLOCK_USED */
 250:.\Generated_Source\PSoC5/UART.c ****     
 251:.\Generated_Source\PSoC5/UART.c ****     /*Disable internal interrupt component*/
 252:.\Generated_Source\PSoC5/UART.c ****     #if(UART_RX_ENABLED || UART_HD_ENABLED)
 253:.\Generated_Source\PSoC5/UART.c ****         UART_RXSTATUS_ACTL_REG  &= ~UART_INT_ENABLE;
 272              		.loc 1 253 0
 273 0042 46F29A53 		movw	r3, #:lower16:1073767834
 274 0046 C4F20003 		movt	r3, #:upper16:1073767834
 275 004a 46F29A52 		movw	r2, #:lower16:1073767834
 276 004e C4F20002 		movt	r2, #:upper16:1073767834
 277 0052 1278     		ldrb	r2, [r2, #0]
 278 0054 D2B2     		uxtb	r2, r2
 279 0056 02F0EF02 		and	r2, r2, #239
 280 005a 1A70     		strb	r2, [r3, #0]
 254:.\Generated_Source\PSoC5/UART.c ****         #if(UART_RX_INTERRUPT_ENABLED && (UART_RXBUFFERSIZE > UART_FIFO_LENGTH))
 255:.\Generated_Source\PSoC5/UART.c ****             UART_DisableRxInt();
 281              		.loc 1 255 0
 282 005c FFF7FEFF 		bl	UART_DisableRxInt
 256:.\Generated_Source\PSoC5/UART.c ****         #endif /* End UART_RX_INTERRUPT_ENABLED */
 257:.\Generated_Source\PSoC5/UART.c ****     #endif /* End UART_RX_ENABLED */
 258:.\Generated_Source\PSoC5/UART.c ****     
 259:.\Generated_Source\PSoC5/UART.c ****     #if(UART_TX_ENABLED)
 260:.\Generated_Source\PSoC5/UART.c ****         UART_TXSTATUS_ACTL_REG &= ~UART_INT_ENABLE;
 283              		.loc 1 260 0
 284 0060 46F29243 		movw	r3, #:lower16:1073767570
 285 0064 C4F20003 		movt	r3, #:upper16:1073767570
 286 0068 46F29242 		movw	r2, #:lower16:1073767570
 287 006c C4F20002 		movt	r2, #:upper16:1073767570
 288 0070 1278     		ldrb	r2, [r2, #0]
 289 0072 D2B2     		uxtb	r2, r2
 290 0074 02F0EF02 		and	r2, r2, #239
 291 0078 1A70     		strb	r2, [r3, #0]
 261:.\Generated_Source\PSoC5/UART.c ****         #if(UART_TX_INTERRUPT_ENABLED && (UART_TXBUFFERSIZE > UART_FIFO_LENGTH))
 262:.\Generated_Source\PSoC5/UART.c ****             UART_DisableTxInt();
 263:.\Generated_Source\PSoC5/UART.c ****         #endif /* End UART_TX_INTERRUPT_ENABLED */
 264:.\Generated_Source\PSoC5/UART.c ****     #endif /* End UART_TX_ENABLED */
 265:.\Generated_Source\PSoC5/UART.c **** 
 266:.\Generated_Source\PSoC5/UART.c ****     CyExitCriticalSection(enableInterrupts);
 292              		.loc 1 266 0
 293 007a FB79     		ldrb	r3, [r7, #7]	@ zero_extendqisi2
 294 007c 1846     		mov	r0, r3
 295 007e FFF7FEFF 		bl	CyExitCriticalSection
 267:.\Generated_Source\PSoC5/UART.c **** }
 296              		.loc 1 267 0
 297 0082 07F10807 		add	r7, r7, #8
 298 0086 BD46     		mov	sp, r7
 299 0088 80BD     		pop	{r7, pc}
ARM GAS  C:\Users\dwguo\AppData\Local\Temp\cceIZtOF.s 			page 11


 300              		.cfi_endproc
 301              	.LFE3:
 302              		.size	UART_Stop, .-UART_Stop
 303 008a 00BF     		.section	.text.UART_ReadControlRegister,"ax",%progbits
 304              		.align	2
 305              		.global	UART_ReadControlRegister
 306              		.thumb
 307              		.thumb_func
 308              		.type	UART_ReadControlRegister, %function
 309              	UART_ReadControlRegister:
 310              	.LFB4:
 268:.\Generated_Source\PSoC5/UART.c **** 
 269:.\Generated_Source\PSoC5/UART.c **** 
 270:.\Generated_Source\PSoC5/UART.c **** /*******************************************************************************
 271:.\Generated_Source\PSoC5/UART.c **** * Function Name: UART_ReadControlRegister
 272:.\Generated_Source\PSoC5/UART.c **** ********************************************************************************
 273:.\Generated_Source\PSoC5/UART.c **** *
 274:.\Generated_Source\PSoC5/UART.c **** * Summary:
 275:.\Generated_Source\PSoC5/UART.c **** *  Read the current state of the control register
 276:.\Generated_Source\PSoC5/UART.c **** *
 277:.\Generated_Source\PSoC5/UART.c **** * Parameters:
 278:.\Generated_Source\PSoC5/UART.c **** *  None.
 279:.\Generated_Source\PSoC5/UART.c **** *
 280:.\Generated_Source\PSoC5/UART.c **** * Return:
 281:.\Generated_Source\PSoC5/UART.c **** *  Current state of the control register.
 282:.\Generated_Source\PSoC5/UART.c **** *
 283:.\Generated_Source\PSoC5/UART.c **** *******************************************************************************/
 284:.\Generated_Source\PSoC5/UART.c **** uint8 UART_ReadControlRegister(void) 
 285:.\Generated_Source\PSoC5/UART.c **** {
 311              		.loc 1 285 0
 312              		.cfi_startproc
 313              		@ args = 0, pretend = 0, frame = 0
 314              		@ frame_needed = 1, uses_anonymous_args = 0
 315              		@ link register save eliminated.
 316 0000 80B4     		push	{r7}
 317              	.LCFI10:
 318              		.cfi_def_cfa_offset 4
 319 0002 00AF     		add	r7, sp, #0
 320              		.cfi_offset 7, -4
 321              	.LCFI11:
 322              		.cfi_def_cfa_register 7
 286:.\Generated_Source\PSoC5/UART.c ****     #if( UART_CONTROL_REG_REMOVED )
 287:.\Generated_Source\PSoC5/UART.c ****         return(0u);
 323              		.loc 1 287 0
 324 0004 4FF00003 		mov	r3, #0
 288:.\Generated_Source\PSoC5/UART.c ****     #else
 289:.\Generated_Source\PSoC5/UART.c ****         return(UART_CONTROL_REG);
 290:.\Generated_Source\PSoC5/UART.c ****     #endif /* End UART_CONTROL_REG_REMOVED */
 291:.\Generated_Source\PSoC5/UART.c **** }
 325              		.loc 1 291 0
 326 0008 1846     		mov	r0, r3
 327 000a BD46     		mov	sp, r7
 328 000c 80BC     		pop	{r7}
 329 000e 7047     		bx	lr
 330              		.cfi_endproc
 331              	.LFE4:
 332              		.size	UART_ReadControlRegister, .-UART_ReadControlRegister
ARM GAS  C:\Users\dwguo\AppData\Local\Temp\cceIZtOF.s 			page 12


 333              		.section	.text.UART_WriteControlRegister,"ax",%progbits
 334              		.align	2
 335              		.global	UART_WriteControlRegister
 336              		.thumb
 337              		.thumb_func
 338              		.type	UART_WriteControlRegister, %function
 339              	UART_WriteControlRegister:
 340              	.LFB5:
 292:.\Generated_Source\PSoC5/UART.c **** 
 293:.\Generated_Source\PSoC5/UART.c **** 
 294:.\Generated_Source\PSoC5/UART.c **** /*******************************************************************************
 295:.\Generated_Source\PSoC5/UART.c **** * Function Name: UART_WriteControlRegister
 296:.\Generated_Source\PSoC5/UART.c **** ********************************************************************************
 297:.\Generated_Source\PSoC5/UART.c **** *
 298:.\Generated_Source\PSoC5/UART.c **** * Summary:
 299:.\Generated_Source\PSoC5/UART.c **** *  Writes an 8-bit value into the control register
 300:.\Generated_Source\PSoC5/UART.c **** *
 301:.\Generated_Source\PSoC5/UART.c **** * Parameters:
 302:.\Generated_Source\PSoC5/UART.c **** *  control:  control register value
 303:.\Generated_Source\PSoC5/UART.c **** *
 304:.\Generated_Source\PSoC5/UART.c **** * Return:
 305:.\Generated_Source\PSoC5/UART.c **** *  None.
 306:.\Generated_Source\PSoC5/UART.c **** *
 307:.\Generated_Source\PSoC5/UART.c **** *******************************************************************************/
 308:.\Generated_Source\PSoC5/UART.c **** void  UART_WriteControlRegister(uint8 control) 
 309:.\Generated_Source\PSoC5/UART.c **** {
 341              		.loc 1 309 0
 342              		.cfi_startproc
 343              		@ args = 0, pretend = 0, frame = 8
 344              		@ frame_needed = 1, uses_anonymous_args = 0
 345              		@ link register save eliminated.
 346 0000 80B4     		push	{r7}
 347              	.LCFI12:
 348              		.cfi_def_cfa_offset 4
 349 0002 83B0     		sub	sp, sp, #12
 350              	.LCFI13:
 351              		.cfi_def_cfa_offset 16
 352 0004 00AF     		add	r7, sp, #0
 353              		.cfi_offset 7, -4
 354              	.LCFI14:
 355              		.cfi_def_cfa_register 7
 356 0006 0346     		mov	r3, r0
 357 0008 FB71     		strb	r3, [r7, #7]
 310:.\Generated_Source\PSoC5/UART.c ****     #if( UART_CONTROL_REG_REMOVED )
 311:.\Generated_Source\PSoC5/UART.c ****         control = control;      /* Reassigning to release compiler warning */ 
 312:.\Generated_Source\PSoC5/UART.c ****     #else
 313:.\Generated_Source\PSoC5/UART.c ****        UART_CONTROL_REG = control;
 314:.\Generated_Source\PSoC5/UART.c ****     #endif /* End UART_CONTROL_REG_REMOVED */
 315:.\Generated_Source\PSoC5/UART.c **** }
 358              		.loc 1 315 0
 359 000a 07F10C07 		add	r7, r7, #12
 360 000e BD46     		mov	sp, r7
 361 0010 80BC     		pop	{r7}
 362 0012 7047     		bx	lr
 363              		.cfi_endproc
 364              	.LFE5:
 365              		.size	UART_WriteControlRegister, .-UART_WriteControlRegister
ARM GAS  C:\Users\dwguo\AppData\Local\Temp\cceIZtOF.s 			page 13


 366              		.section	.text.UART_EnableRxInt,"ax",%progbits
 367              		.align	2
 368              		.global	UART_EnableRxInt
 369              		.thumb
 370              		.thumb_func
 371              		.type	UART_EnableRxInt, %function
 372              	UART_EnableRxInt:
 373              	.LFB6:
 316:.\Generated_Source\PSoC5/UART.c **** 
 317:.\Generated_Source\PSoC5/UART.c **** 
 318:.\Generated_Source\PSoC5/UART.c **** #if(UART_RX_ENABLED || UART_HD_ENABLED)
 319:.\Generated_Source\PSoC5/UART.c **** 
 320:.\Generated_Source\PSoC5/UART.c ****     #if(UART_RX_INTERRUPT_ENABLED)
 321:.\Generated_Source\PSoC5/UART.c **** 
 322:.\Generated_Source\PSoC5/UART.c ****         /*******************************************************************************
 323:.\Generated_Source\PSoC5/UART.c ****         * Function Name: UART_EnableRxInt
 324:.\Generated_Source\PSoC5/UART.c ****         ********************************************************************************
 325:.\Generated_Source\PSoC5/UART.c ****         *
 326:.\Generated_Source\PSoC5/UART.c ****         * Summary:
 327:.\Generated_Source\PSoC5/UART.c ****         *  Enable RX interrupt generation
 328:.\Generated_Source\PSoC5/UART.c ****         *
 329:.\Generated_Source\PSoC5/UART.c ****         * Parameters:
 330:.\Generated_Source\PSoC5/UART.c ****         *  None.
 331:.\Generated_Source\PSoC5/UART.c ****         *
 332:.\Generated_Source\PSoC5/UART.c ****         * Return:
 333:.\Generated_Source\PSoC5/UART.c ****         *  None.
 334:.\Generated_Source\PSoC5/UART.c ****         *
 335:.\Generated_Source\PSoC5/UART.c ****         * Theory:
 336:.\Generated_Source\PSoC5/UART.c ****         *  Enable the interrupt output -or- the interrupt component itself
 337:.\Generated_Source\PSoC5/UART.c ****         *
 338:.\Generated_Source\PSoC5/UART.c ****         *******************************************************************************/
 339:.\Generated_Source\PSoC5/UART.c ****         void UART_EnableRxInt(void) 
 340:.\Generated_Source\PSoC5/UART.c ****         {
 374              		.loc 1 340 0
 375              		.cfi_startproc
 376              		@ args = 0, pretend = 0, frame = 0
 377              		@ frame_needed = 1, uses_anonymous_args = 0
 378 0000 80B5     		push	{r7, lr}
 379              	.LCFI15:
 380              		.cfi_def_cfa_offset 8
 381 0002 00AF     		add	r7, sp, #0
 382              		.cfi_offset 14, -4
 383              		.cfi_offset 7, -8
 384              	.LCFI16:
 385              		.cfi_def_cfa_register 7
 341:.\Generated_Source\PSoC5/UART.c ****             CyIntEnable(UART_RX_VECT_NUM);
 386              		.loc 1 341 0
 387 0004 4FF00000 		mov	r0, #0
 388 0008 FFF7FEFF 		bl	CyIntEnable
 342:.\Generated_Source\PSoC5/UART.c ****         }
 389              		.loc 1 342 0
 390 000c 80BD     		pop	{r7, pc}
 391              		.cfi_endproc
 392              	.LFE6:
 393              		.size	UART_EnableRxInt, .-UART_EnableRxInt
 394 000e 00BF     		.section	.text.UART_DisableRxInt,"ax",%progbits
 395              		.align	2
ARM GAS  C:\Users\dwguo\AppData\Local\Temp\cceIZtOF.s 			page 14


 396              		.global	UART_DisableRxInt
 397              		.thumb
 398              		.thumb_func
 399              		.type	UART_DisableRxInt, %function
 400              	UART_DisableRxInt:
 401              	.LFB7:
 343:.\Generated_Source\PSoC5/UART.c **** 
 344:.\Generated_Source\PSoC5/UART.c **** 
 345:.\Generated_Source\PSoC5/UART.c ****         /*******************************************************************************
 346:.\Generated_Source\PSoC5/UART.c ****         * Function Name: UART_DisableRxInt
 347:.\Generated_Source\PSoC5/UART.c ****         ********************************************************************************
 348:.\Generated_Source\PSoC5/UART.c ****         *
 349:.\Generated_Source\PSoC5/UART.c ****         * Summary:
 350:.\Generated_Source\PSoC5/UART.c ****         *  Disable RX interrupt generation
 351:.\Generated_Source\PSoC5/UART.c ****         *
 352:.\Generated_Source\PSoC5/UART.c ****         * Parameters:
 353:.\Generated_Source\PSoC5/UART.c ****         *  None.
 354:.\Generated_Source\PSoC5/UART.c ****         *
 355:.\Generated_Source\PSoC5/UART.c ****         * Return:
 356:.\Generated_Source\PSoC5/UART.c ****         *  None.
 357:.\Generated_Source\PSoC5/UART.c ****         *
 358:.\Generated_Source\PSoC5/UART.c ****         * Theory:
 359:.\Generated_Source\PSoC5/UART.c ****         *  Disable the interrupt output -or- the interrupt component itself
 360:.\Generated_Source\PSoC5/UART.c ****         *
 361:.\Generated_Source\PSoC5/UART.c ****         *******************************************************************************/
 362:.\Generated_Source\PSoC5/UART.c ****         void UART_DisableRxInt(void) 
 363:.\Generated_Source\PSoC5/UART.c ****         {
 402              		.loc 1 363 0
 403              		.cfi_startproc
 404              		@ args = 0, pretend = 0, frame = 0
 405              		@ frame_needed = 1, uses_anonymous_args = 0
 406 0000 80B5     		push	{r7, lr}
 407              	.LCFI17:
 408              		.cfi_def_cfa_offset 8
 409 0002 00AF     		add	r7, sp, #0
 410              		.cfi_offset 14, -4
 411              		.cfi_offset 7, -8
 412              	.LCFI18:
 413              		.cfi_def_cfa_register 7
 364:.\Generated_Source\PSoC5/UART.c ****             CyIntDisable(UART_RX_VECT_NUM);
 414              		.loc 1 364 0
 415 0004 4FF00000 		mov	r0, #0
 416 0008 FFF7FEFF 		bl	CyIntDisable
 365:.\Generated_Source\PSoC5/UART.c ****         }
 417              		.loc 1 365 0
 418 000c 80BD     		pop	{r7, pc}
 419              		.cfi_endproc
 420              	.LFE7:
 421              		.size	UART_DisableRxInt, .-UART_DisableRxInt
 422 000e 00BF     		.section	.text.UART_SetRxInterruptMode,"ax",%progbits
 423              		.align	2
 424              		.global	UART_SetRxInterruptMode
 425              		.thumb
 426              		.thumb_func
 427              		.type	UART_SetRxInterruptMode, %function
 428              	UART_SetRxInterruptMode:
 429              	.LFB8:
ARM GAS  C:\Users\dwguo\AppData\Local\Temp\cceIZtOF.s 			page 15


 366:.\Generated_Source\PSoC5/UART.c **** 
 367:.\Generated_Source\PSoC5/UART.c ****     #endif /* UART_RX_INTERRUPT_ENABLED */
 368:.\Generated_Source\PSoC5/UART.c **** 
 369:.\Generated_Source\PSoC5/UART.c **** 
 370:.\Generated_Source\PSoC5/UART.c ****     /*******************************************************************************
 371:.\Generated_Source\PSoC5/UART.c ****     * Function Name: UART_SetRxInterruptMode
 372:.\Generated_Source\PSoC5/UART.c ****     ********************************************************************************
 373:.\Generated_Source\PSoC5/UART.c ****     *
 374:.\Generated_Source\PSoC5/UART.c ****     * Summary:
 375:.\Generated_Source\PSoC5/UART.c ****     *  Configure which status bits trigger an interrupt event
 376:.\Generated_Source\PSoC5/UART.c ****     *
 377:.\Generated_Source\PSoC5/UART.c ****     * Parameters:
 378:.\Generated_Source\PSoC5/UART.c ****     *  IntSrc:  An or'd combination of the desired status bit masks (defined in
 379:.\Generated_Source\PSoC5/UART.c ****     *           the header file)
 380:.\Generated_Source\PSoC5/UART.c ****     *
 381:.\Generated_Source\PSoC5/UART.c ****     * Return:
 382:.\Generated_Source\PSoC5/UART.c ****     *  None.
 383:.\Generated_Source\PSoC5/UART.c ****     *
 384:.\Generated_Source\PSoC5/UART.c ****     * Theory:
 385:.\Generated_Source\PSoC5/UART.c ****     *  Enables the output of specific status bits to the interrupt controller
 386:.\Generated_Source\PSoC5/UART.c ****     *
 387:.\Generated_Source\PSoC5/UART.c ****     *******************************************************************************/
 388:.\Generated_Source\PSoC5/UART.c ****     void UART_SetRxInterruptMode(uint8 intSrc) 
 389:.\Generated_Source\PSoC5/UART.c ****     {
 430              		.loc 1 389 0
 431              		.cfi_startproc
 432              		@ args = 0, pretend = 0, frame = 8
 433              		@ frame_needed = 1, uses_anonymous_args = 0
 434              		@ link register save eliminated.
 435 0000 80B4     		push	{r7}
 436              	.LCFI19:
 437              		.cfi_def_cfa_offset 4
 438 0002 83B0     		sub	sp, sp, #12
 439              	.LCFI20:
 440              		.cfi_def_cfa_offset 16
 441 0004 00AF     		add	r7, sp, #0
 442              		.cfi_offset 7, -4
 443              	.LCFI21:
 444              		.cfi_def_cfa_register 7
 445 0006 0346     		mov	r3, r0
 446 0008 FB71     		strb	r3, [r7, #7]
 390:.\Generated_Source\PSoC5/UART.c ****         UART_RXSTATUS_MASK_REG  = intSrc;
 447              		.loc 1 390 0
 448 000a 46F28A53 		movw	r3, #:lower16:1073767818
 449 000e C4F20003 		movt	r3, #:upper16:1073767818
 450 0012 FA79     		ldrb	r2, [r7, #7]
 451 0014 1A70     		strb	r2, [r3, #0]
 391:.\Generated_Source\PSoC5/UART.c ****     }
 452              		.loc 1 391 0
 453 0016 07F10C07 		add	r7, r7, #12
 454 001a BD46     		mov	sp, r7
 455 001c 80BC     		pop	{r7}
 456 001e 7047     		bx	lr
 457              		.cfi_endproc
 458              	.LFE8:
 459              		.size	UART_SetRxInterruptMode, .-UART_SetRxInterruptMode
 460              		.section	.text.UART_ReadRxData,"ax",%progbits
ARM GAS  C:\Users\dwguo\AppData\Local\Temp\cceIZtOF.s 			page 16


 461              		.align	2
 462              		.global	UART_ReadRxData
 463              		.thumb
 464              		.thumb_func
 465              		.type	UART_ReadRxData, %function
 466              	UART_ReadRxData:
 467              	.LFB9:
 392:.\Generated_Source\PSoC5/UART.c **** 
 393:.\Generated_Source\PSoC5/UART.c **** 
 394:.\Generated_Source\PSoC5/UART.c ****     /*******************************************************************************
 395:.\Generated_Source\PSoC5/UART.c ****     * Function Name: UART_ReadRxData
 396:.\Generated_Source\PSoC5/UART.c ****     ********************************************************************************
 397:.\Generated_Source\PSoC5/UART.c ****     *
 398:.\Generated_Source\PSoC5/UART.c ****     * Summary:
 399:.\Generated_Source\PSoC5/UART.c ****     *  Returns data in RX Data register without checking status register to 
 400:.\Generated_Source\PSoC5/UART.c ****     *  determine if data is valid
 401:.\Generated_Source\PSoC5/UART.c ****     *
 402:.\Generated_Source\PSoC5/UART.c ****     * Parameters:
 403:.\Generated_Source\PSoC5/UART.c ****     *  None.
 404:.\Generated_Source\PSoC5/UART.c ****     *
 405:.\Generated_Source\PSoC5/UART.c ****     * Return:
 406:.\Generated_Source\PSoC5/UART.c ****     *  Received data from RX register
 407:.\Generated_Source\PSoC5/UART.c ****     *
 408:.\Generated_Source\PSoC5/UART.c ****     * Global Variables:
 409:.\Generated_Source\PSoC5/UART.c ****     *  UART_rxBuffer - RAM buffer pointer for save received data.
 410:.\Generated_Source\PSoC5/UART.c ****     *  UART_rxBufferWrite - cyclic index for write to rxBuffer, 
 411:.\Generated_Source\PSoC5/UART.c ****     *     checked to identify new data. 
 412:.\Generated_Source\PSoC5/UART.c ****     *  UART_rxBufferRead - cyclic index for read from rxBuffer, 
 413:.\Generated_Source\PSoC5/UART.c ****     *     incremented after each byte has been read from buffer.
 414:.\Generated_Source\PSoC5/UART.c ****     *  UART_rxBufferLoopDetect - creared if loop condition was detected
 415:.\Generated_Source\PSoC5/UART.c ****     *     in RX ISR. 
 416:.\Generated_Source\PSoC5/UART.c ****     *
 417:.\Generated_Source\PSoC5/UART.c ****     * Reentrant:
 418:.\Generated_Source\PSoC5/UART.c ****     *  No.
 419:.\Generated_Source\PSoC5/UART.c ****     *
 420:.\Generated_Source\PSoC5/UART.c ****     *******************************************************************************/
 421:.\Generated_Source\PSoC5/UART.c ****     uint8 UART_ReadRxData(void) 
 422:.\Generated_Source\PSoC5/UART.c ****     {
 468              		.loc 1 422 0
 469              		.cfi_startproc
 470              		@ args = 0, pretend = 0, frame = 8
 471              		@ frame_needed = 1, uses_anonymous_args = 0
 472 0000 80B5     		push	{r7, lr}
 473              	.LCFI22:
 474              		.cfi_def_cfa_offset 8
 475 0002 82B0     		sub	sp, sp, #8
 476              	.LCFI23:
 477              		.cfi_def_cfa_offset 16
 478 0004 00AF     		add	r7, sp, #0
 479              		.cfi_offset 14, -4
 480              		.cfi_offset 7, -8
 481              	.LCFI24:
 482              		.cfi_def_cfa_register 7
 423:.\Generated_Source\PSoC5/UART.c ****         uint8 rxData;
 424:.\Generated_Source\PSoC5/UART.c **** 
 425:.\Generated_Source\PSoC5/UART.c ****         #if(UART_RXBUFFERSIZE > UART_FIFO_LENGTH)
 426:.\Generated_Source\PSoC5/UART.c **** 
ARM GAS  C:\Users\dwguo\AppData\Local\Temp\cceIZtOF.s 			page 17


 427:.\Generated_Source\PSoC5/UART.c ****             /* Disable Rx interrupt. */
 428:.\Generated_Source\PSoC5/UART.c ****             /* Protect variables that could change on interrupt. */
 429:.\Generated_Source\PSoC5/UART.c ****             #if(UART_RX_INTERRUPT_ENABLED)
 430:.\Generated_Source\PSoC5/UART.c ****                 UART_DisableRxInt();
 483              		.loc 1 430 0
 484 0006 FFF7FEFF 		bl	UART_DisableRxInt
 431:.\Generated_Source\PSoC5/UART.c ****             #endif /* End UART_RX_INTERRUPT_ENABLED */
 432:.\Generated_Source\PSoC5/UART.c **** 
 433:.\Generated_Source\PSoC5/UART.c ****             if( (UART_rxBufferRead != UART_rxBufferWrite) ||
 485              		.loc 1 433 0
 486 000a 40F20003 		movw	r3, #:lower16:UART_rxBufferRead
 487 000e C0F20003 		movt	r3, #:upper16:UART_rxBufferRead
 488 0012 1B78     		ldrb	r3, [r3, #0]
 489 0014 DAB2     		uxtb	r2, r3
 490 0016 40F20003 		movw	r3, #:lower16:UART_rxBufferWrite
 491 001a C0F20003 		movt	r3, #:upper16:UART_rxBufferWrite
 492 001e 1B78     		ldrb	r3, [r3, #0]
 493 0020 DBB2     		uxtb	r3, r3
 494 0022 9A42     		cmp	r2, r3
 495 0024 07D1     		bne	.L21
 434:.\Generated_Source\PSoC5/UART.c ****                 (UART_rxBufferLoopDetect > 0u) )
 496              		.loc 1 434 0
 497 0026 40F20003 		movw	r3, #:lower16:UART_rxBufferLoopDetect
 498 002a C0F20003 		movt	r3, #:upper16:UART_rxBufferLoopDetect
 499 002e 1B78     		ldrb	r3, [r3, #0]
 500 0030 DBB2     		uxtb	r3, r3
 501              		.loc 1 433 0
 502 0032 002B     		cmp	r3, #0
 503 0034 39D0     		beq	.L22
 504              	.L21:
 435:.\Generated_Source\PSoC5/UART.c ****             {
 436:.\Generated_Source\PSoC5/UART.c **** 
 437:.\Generated_Source\PSoC5/UART.c ****                 rxData = UART_rxBuffer[UART_rxBufferRead];
 505              		.loc 1 437 0
 506 0036 40F20003 		movw	r3, #:lower16:UART_rxBufferRead
 507 003a C0F20003 		movt	r3, #:upper16:UART_rxBufferRead
 508 003e 1B78     		ldrb	r3, [r3, #0]
 509 0040 DBB2     		uxtb	r3, r3
 510 0042 1A46     		mov	r2, r3
 511 0044 40F20003 		movw	r3, #:lower16:UART_rxBuffer
 512 0048 C0F20003 		movt	r3, #:upper16:UART_rxBuffer
 513 004c 9B5C     		ldrb	r3, [r3, r2]
 514 004e FB71     		strb	r3, [r7, #7]
 438:.\Generated_Source\PSoC5/UART.c **** 
 439:.\Generated_Source\PSoC5/UART.c ****                 UART_rxBufferRead++;
 515              		.loc 1 439 0
 516 0050 40F20003 		movw	r3, #:lower16:UART_rxBufferRead
 517 0054 C0F20003 		movt	r3, #:upper16:UART_rxBufferRead
 518 0058 1B78     		ldrb	r3, [r3, #0]
 519 005a DBB2     		uxtb	r3, r3
 520 005c 03F10103 		add	r3, r3, #1
 521 0060 DAB2     		uxtb	r2, r3
 522 0062 40F20003 		movw	r3, #:lower16:UART_rxBufferRead
 523 0066 C0F20003 		movt	r3, #:upper16:UART_rxBufferRead
 524 006a 1A70     		strb	r2, [r3, #0]
 440:.\Generated_Source\PSoC5/UART.c **** 
 441:.\Generated_Source\PSoC5/UART.c ****                 if(UART_rxBufferRead >= UART_RXBUFFERSIZE)
ARM GAS  C:\Users\dwguo\AppData\Local\Temp\cceIZtOF.s 			page 18


 525              		.loc 1 441 0
 526 006c 40F20003 		movw	r3, #:lower16:UART_rxBufferRead
 527 0070 C0F20003 		movt	r3, #:upper16:UART_rxBufferRead
 528 0074 1B78     		ldrb	r3, [r3, #0]
 529 0076 DBB2     		uxtb	r3, r3
 530 0078 042B     		cmp	r3, #4
 531 007a 06D9     		bls	.L23
 442:.\Generated_Source\PSoC5/UART.c ****                 {
 443:.\Generated_Source\PSoC5/UART.c ****                     UART_rxBufferRead = 0u;
 532              		.loc 1 443 0
 533 007c 40F20003 		movw	r3, #:lower16:UART_rxBufferRead
 534 0080 C0F20003 		movt	r3, #:upper16:UART_rxBufferRead
 535 0084 4FF00002 		mov	r2, #0
 536 0088 1A70     		strb	r2, [r3, #0]
 537              	.L23:
 444:.\Generated_Source\PSoC5/UART.c ****                 }
 445:.\Generated_Source\PSoC5/UART.c **** 
 446:.\Generated_Source\PSoC5/UART.c ****                 if(UART_rxBufferLoopDetect > 0u )
 538              		.loc 1 446 0
 539 008a 40F20003 		movw	r3, #:lower16:UART_rxBufferLoopDetect
 540 008e C0F20003 		movt	r3, #:upper16:UART_rxBufferLoopDetect
 541 0092 1B78     		ldrb	r3, [r3, #0]
 542 0094 DBB2     		uxtb	r3, r3
 543 0096 002B     		cmp	r3, #0
 544 0098 0ED0     		beq	.L27
 447:.\Generated_Source\PSoC5/UART.c ****                 {
 448:.\Generated_Source\PSoC5/UART.c ****                     UART_rxBufferLoopDetect = 0u;
 545              		.loc 1 448 0
 546 009a 40F20003 		movw	r3, #:lower16:UART_rxBufferLoopDetect
 547 009e C0F20003 		movt	r3, #:upper16:UART_rxBufferLoopDetect
 548 00a2 4FF00002 		mov	r2, #0
 549 00a6 1A70     		strb	r2, [r3, #0]
 550              		.loc 1 433 0
 551 00a8 07E0     		b	.L25
 552              	.L22:
 449:.\Generated_Source\PSoC5/UART.c ****                     #if( (UART_RX_INTERRUPT_ENABLED) && (UART_FLOW_CONTROL != 0u) && \
 450:.\Generated_Source\PSoC5/UART.c ****                          (UART_RXBUFFERSIZE > UART_FIFO_LENGTH) )
 451:.\Generated_Source\PSoC5/UART.c ****                         /* When Hardware Flow Control selected - return RX mask */
 452:.\Generated_Source\PSoC5/UART.c ****                         #if( UART_HD_ENABLED )
 453:.\Generated_Source\PSoC5/UART.c ****                             if((UART_CONTROL_REG & UART_CTRL_HD_SEND) == 0)
 454:.\Generated_Source\PSoC5/UART.c ****                             {   /* In Half duplex mode return RX mask only in RX 
 455:.\Generated_Source\PSoC5/UART.c ****                                 *  configuration set, otherwise 
 456:.\Generated_Source\PSoC5/UART.c ****                                 *  mask will be returned in LoadRxConfig() API. 
 457:.\Generated_Source\PSoC5/UART.c ****                                 */
 458:.\Generated_Source\PSoC5/UART.c ****                                 UART_RXSTATUS_MASK_REG  |= UART_RX_STS_FIFO_NOTEMPTY;
 459:.\Generated_Source\PSoC5/UART.c ****                             }
 460:.\Generated_Source\PSoC5/UART.c ****                         #else
 461:.\Generated_Source\PSoC5/UART.c ****                             UART_RXSTATUS_MASK_REG  |= UART_RX_STS_FIFO_NOTEMPTY;
 462:.\Generated_Source\PSoC5/UART.c ****                         #endif /* end UART_HD_ENABLED */
 463:.\Generated_Source\PSoC5/UART.c ****                     #endif /* UART_RX_INTERRUPT_ENABLED and Hardware flow control*/
 464:.\Generated_Source\PSoC5/UART.c ****                 }
 465:.\Generated_Source\PSoC5/UART.c ****             }
 466:.\Generated_Source\PSoC5/UART.c ****             else
 467:.\Generated_Source\PSoC5/UART.c ****             {   /* Needs to check status for RX_STS_FIFO_NOTEMPTY bit*/
 468:.\Generated_Source\PSoC5/UART.c ****                 rxData = UART_RXDATA_REG;
 553              		.loc 1 468 0
 554 00aa 46F24453 		movw	r3, #:lower16:1073767748
ARM GAS  C:\Users\dwguo\AppData\Local\Temp\cceIZtOF.s 			page 19


 555 00ae C4F20003 		movt	r3, #:upper16:1073767748
 556 00b2 1B78     		ldrb	r3, [r3, #0]
 557 00b4 FB71     		strb	r3, [r7, #7]
 558 00b6 00E0     		b	.L25
 559              	.L27:
 560              		.loc 1 433 0
 561 00b8 00BF     		nop
 562              	.L25:
 469:.\Generated_Source\PSoC5/UART.c ****             }
 470:.\Generated_Source\PSoC5/UART.c **** 
 471:.\Generated_Source\PSoC5/UART.c ****             /* Enable Rx interrupt. */
 472:.\Generated_Source\PSoC5/UART.c ****             #if(UART_RX_INTERRUPT_ENABLED)
 473:.\Generated_Source\PSoC5/UART.c ****                 UART_EnableRxInt();
 563              		.loc 1 473 0
 564 00ba FFF7FEFF 		bl	UART_EnableRxInt
 474:.\Generated_Source\PSoC5/UART.c ****             #endif /* End UART_RX_INTERRUPT_ENABLED */
 475:.\Generated_Source\PSoC5/UART.c **** 
 476:.\Generated_Source\PSoC5/UART.c ****         #else /* UART_RXBUFFERSIZE > UART_FIFO_LENGTH */
 477:.\Generated_Source\PSoC5/UART.c **** 
 478:.\Generated_Source\PSoC5/UART.c ****             /* Needs to check status for RX_STS_FIFO_NOTEMPTY bit*/
 479:.\Generated_Source\PSoC5/UART.c ****             rxData = UART_RXDATA_REG;
 480:.\Generated_Source\PSoC5/UART.c **** 
 481:.\Generated_Source\PSoC5/UART.c ****         #endif /* UART_RXBUFFERSIZE > UART_FIFO_LENGTH */
 482:.\Generated_Source\PSoC5/UART.c **** 
 483:.\Generated_Source\PSoC5/UART.c ****         return(rxData);
 565              		.loc 1 483 0
 566 00be FB79     		ldrb	r3, [r7, #7]	@ zero_extendqisi2
 484:.\Generated_Source\PSoC5/UART.c ****     }
 567              		.loc 1 484 0
 568 00c0 1846     		mov	r0, r3
 569 00c2 07F10807 		add	r7, r7, #8
 570 00c6 BD46     		mov	sp, r7
 571 00c8 80BD     		pop	{r7, pc}
 572              		.cfi_endproc
 573              	.LFE9:
 574              		.size	UART_ReadRxData, .-UART_ReadRxData
 575              		.section	.text.UART_ReadRxStatus,"ax",%progbits
 576              		.align	2
 577              		.global	UART_ReadRxStatus
 578              		.thumb
 579              		.thumb_func
 580              		.type	UART_ReadRxStatus, %function
 581              	UART_ReadRxStatus:
 582              	.LFB10:
 485:.\Generated_Source\PSoC5/UART.c **** 
 486:.\Generated_Source\PSoC5/UART.c **** 
 487:.\Generated_Source\PSoC5/UART.c ****     /*******************************************************************************
 488:.\Generated_Source\PSoC5/UART.c ****     * Function Name: UART_ReadRxStatus
 489:.\Generated_Source\PSoC5/UART.c ****     ********************************************************************************
 490:.\Generated_Source\PSoC5/UART.c ****     *
 491:.\Generated_Source\PSoC5/UART.c ****     * Summary:
 492:.\Generated_Source\PSoC5/UART.c ****     *  Read the current state of the status register
 493:.\Generated_Source\PSoC5/UART.c ****     *  And detect software buffer overflow.
 494:.\Generated_Source\PSoC5/UART.c ****     *
 495:.\Generated_Source\PSoC5/UART.c ****     * Parameters:
 496:.\Generated_Source\PSoC5/UART.c ****     *  None.
 497:.\Generated_Source\PSoC5/UART.c ****     *
ARM GAS  C:\Users\dwguo\AppData\Local\Temp\cceIZtOF.s 			page 20


 498:.\Generated_Source\PSoC5/UART.c ****     * Return:
 499:.\Generated_Source\PSoC5/UART.c ****     *  Current state of the status register.
 500:.\Generated_Source\PSoC5/UART.c ****     *
 501:.\Generated_Source\PSoC5/UART.c ****     * Global Variables:
 502:.\Generated_Source\PSoC5/UART.c ****     *  UART_rxBufferOverflow - used to indicate overload condition. 
 503:.\Generated_Source\PSoC5/UART.c ****     *   It set to one in RX interrupt when there isn?t free space in 
 504:.\Generated_Source\PSoC5/UART.c ****     *   UART_rxBufferRead to write new data. This condition returned 
 505:.\Generated_Source\PSoC5/UART.c ****     *   and cleared to zero by this API as an 
 506:.\Generated_Source\PSoC5/UART.c ****     *   UART_RX_STS_SOFT_BUFF_OVER bit along with RX Status register 
 507:.\Generated_Source\PSoC5/UART.c ****     *   bits.
 508:.\Generated_Source\PSoC5/UART.c ****     *
 509:.\Generated_Source\PSoC5/UART.c ****     *******************************************************************************/
 510:.\Generated_Source\PSoC5/UART.c ****     uint8 UART_ReadRxStatus(void) 
 511:.\Generated_Source\PSoC5/UART.c ****     {
 583              		.loc 1 511 0
 584              		.cfi_startproc
 585              		@ args = 0, pretend = 0, frame = 8
 586              		@ frame_needed = 1, uses_anonymous_args = 0
 587              		@ link register save eliminated.
 588 0000 80B4     		push	{r7}
 589              	.LCFI25:
 590              		.cfi_def_cfa_offset 4
 591 0002 83B0     		sub	sp, sp, #12
 592              	.LCFI26:
 593              		.cfi_def_cfa_offset 16
 594 0004 00AF     		add	r7, sp, #0
 595              		.cfi_offset 7, -4
 596              	.LCFI27:
 597              		.cfi_def_cfa_register 7
 512:.\Generated_Source\PSoC5/UART.c ****         uint8 status;
 513:.\Generated_Source\PSoC5/UART.c **** 
 514:.\Generated_Source\PSoC5/UART.c ****         status = UART_RXSTATUS_REG;
 598              		.loc 1 514 0
 599 0006 46F26A53 		movw	r3, #:lower16:1073767786
 600 000a C4F20003 		movt	r3, #:upper16:1073767786
 601 000e 1B78     		ldrb	r3, [r3, #0]
 602 0010 FB71     		strb	r3, [r7, #7]
 515:.\Generated_Source\PSoC5/UART.c ****         status &= UART_RX_HW_MASK;
 603              		.loc 1 515 0
 604 0012 FB79     		ldrb	r3, [r7, #7]
 605 0014 03F07F03 		and	r3, r3, #127
 606 0018 FB71     		strb	r3, [r7, #7]
 516:.\Generated_Source\PSoC5/UART.c **** 
 517:.\Generated_Source\PSoC5/UART.c ****         #if(UART_RXBUFFERSIZE > UART_FIFO_LENGTH)
 518:.\Generated_Source\PSoC5/UART.c ****             if( UART_rxBufferOverflow )
 607              		.loc 1 518 0
 608 001a 40F20003 		movw	r3, #:lower16:UART_rxBufferOverflow
 609 001e C0F20003 		movt	r3, #:upper16:UART_rxBufferOverflow
 610 0022 1B78     		ldrb	r3, [r3, #0]
 611 0024 DBB2     		uxtb	r3, r3
 612 0026 002B     		cmp	r3, #0
 613 0028 0CD0     		beq	.L29
 519:.\Generated_Source\PSoC5/UART.c ****             {
 520:.\Generated_Source\PSoC5/UART.c ****                 status |= UART_RX_STS_SOFT_BUFF_OVER;
 614              		.loc 1 520 0
 615 002a FB79     		ldrb	r3, [r7, #7]
 616 002c 6FEA4363 		mvn	r3, r3, lsl #25
ARM GAS  C:\Users\dwguo\AppData\Local\Temp\cceIZtOF.s 			page 21


 617 0030 6FEA5363 		mvn	r3, r3, lsr #25
 618 0034 FB71     		strb	r3, [r7, #7]
 521:.\Generated_Source\PSoC5/UART.c ****                 UART_rxBufferOverflow = 0u;
 619              		.loc 1 521 0
 620 0036 40F20003 		movw	r3, #:lower16:UART_rxBufferOverflow
 621 003a C0F20003 		movt	r3, #:upper16:UART_rxBufferOverflow
 622 003e 4FF00002 		mov	r2, #0
 623 0042 1A70     		strb	r2, [r3, #0]
 624              	.L29:
 522:.\Generated_Source\PSoC5/UART.c ****             }
 523:.\Generated_Source\PSoC5/UART.c ****         #endif /* UART_RXBUFFERSIZE */
 524:.\Generated_Source\PSoC5/UART.c **** 
 525:.\Generated_Source\PSoC5/UART.c ****         return(status);
 625              		.loc 1 525 0
 626 0044 FB79     		ldrb	r3, [r7, #7]	@ zero_extendqisi2
 526:.\Generated_Source\PSoC5/UART.c ****     }
 627              		.loc 1 526 0
 628 0046 1846     		mov	r0, r3
 629 0048 07F10C07 		add	r7, r7, #12
 630 004c BD46     		mov	sp, r7
 631 004e 80BC     		pop	{r7}
 632 0050 7047     		bx	lr
 633              		.cfi_endproc
 634              	.LFE10:
 635              		.size	UART_ReadRxStatus, .-UART_ReadRxStatus
 636 0052 00BF     		.section	.text.UART_GetChar,"ax",%progbits
 637              		.align	2
 638              		.global	UART_GetChar
 639              		.thumb
 640              		.thumb_func
 641              		.type	UART_GetChar, %function
 642              	UART_GetChar:
 643              	.LFB11:
 527:.\Generated_Source\PSoC5/UART.c **** 
 528:.\Generated_Source\PSoC5/UART.c **** 
 529:.\Generated_Source\PSoC5/UART.c ****     /*******************************************************************************
 530:.\Generated_Source\PSoC5/UART.c ****     * Function Name: UART_GetChar
 531:.\Generated_Source\PSoC5/UART.c ****     ********************************************************************************
 532:.\Generated_Source\PSoC5/UART.c ****     *
 533:.\Generated_Source\PSoC5/UART.c ****     * Summary:
 534:.\Generated_Source\PSoC5/UART.c ****     *  Reads UART RX buffer immediately, if data is not available or an error 
 535:.\Generated_Source\PSoC5/UART.c ****     *  condition exists, zero is returned; otherwise, character is read and 
 536:.\Generated_Source\PSoC5/UART.c ****     *  returned.
 537:.\Generated_Source\PSoC5/UART.c ****     *
 538:.\Generated_Source\PSoC5/UART.c ****     * Parameters:
 539:.\Generated_Source\PSoC5/UART.c ****     *  None.
 540:.\Generated_Source\PSoC5/UART.c ****     *
 541:.\Generated_Source\PSoC5/UART.c ****     * Return:
 542:.\Generated_Source\PSoC5/UART.c ****     *  Character read from UART RX buffer. ASCII characters from 1 to 255 are valid.
 543:.\Generated_Source\PSoC5/UART.c ****     *  A returned zero signifies an error condition or no data available.
 544:.\Generated_Source\PSoC5/UART.c ****     *
 545:.\Generated_Source\PSoC5/UART.c ****     * Global Variables:
 546:.\Generated_Source\PSoC5/UART.c ****     *  UART_rxBuffer - RAM buffer pointer for save received data.
 547:.\Generated_Source\PSoC5/UART.c ****     *  UART_rxBufferWrite - cyclic index for write to rxBuffer, 
 548:.\Generated_Source\PSoC5/UART.c ****     *     checked to identify new data. 
 549:.\Generated_Source\PSoC5/UART.c ****     *  UART_rxBufferRead - cyclic index for read from rxBuffer, 
 550:.\Generated_Source\PSoC5/UART.c ****     *     incremented after each byte has been read from buffer.
ARM GAS  C:\Users\dwguo\AppData\Local\Temp\cceIZtOF.s 			page 22


 551:.\Generated_Source\PSoC5/UART.c ****     *  UART_rxBufferLoopDetect - creared if loop condition was detected
 552:.\Generated_Source\PSoC5/UART.c ****     *     in RX ISR. 
 553:.\Generated_Source\PSoC5/UART.c ****     *
 554:.\Generated_Source\PSoC5/UART.c ****     * Reentrant:
 555:.\Generated_Source\PSoC5/UART.c ****     *  No.
 556:.\Generated_Source\PSoC5/UART.c ****     *
 557:.\Generated_Source\PSoC5/UART.c ****     *******************************************************************************/
 558:.\Generated_Source\PSoC5/UART.c ****     uint8 UART_GetChar(void) 
 559:.\Generated_Source\PSoC5/UART.c ****     {
 644              		.loc 1 559 0
 645              		.cfi_startproc
 646              		@ args = 0, pretend = 0, frame = 8
 647              		@ frame_needed = 1, uses_anonymous_args = 0
 648 0000 80B5     		push	{r7, lr}
 649              	.LCFI28:
 650              		.cfi_def_cfa_offset 8
 651 0002 82B0     		sub	sp, sp, #8
 652              	.LCFI29:
 653              		.cfi_def_cfa_offset 16
 654 0004 00AF     		add	r7, sp, #0
 655              		.cfi_offset 14, -4
 656              		.cfi_offset 7, -8
 657              	.LCFI30:
 658              		.cfi_def_cfa_register 7
 560:.\Generated_Source\PSoC5/UART.c ****         uint8 rxData = 0u;
 659              		.loc 1 560 0
 660 0006 4FF00003 		mov	r3, #0
 661 000a BB71     		strb	r3, [r7, #6]
 561:.\Generated_Source\PSoC5/UART.c ****         uint8 rxStatus;
 562:.\Generated_Source\PSoC5/UART.c **** 
 563:.\Generated_Source\PSoC5/UART.c ****         #if(UART_RXBUFFERSIZE > UART_FIFO_LENGTH)
 564:.\Generated_Source\PSoC5/UART.c **** 
 565:.\Generated_Source\PSoC5/UART.c ****             /* Disable Rx interrupt. */
 566:.\Generated_Source\PSoC5/UART.c ****             /* Protect variables that could change on interrupt. */
 567:.\Generated_Source\PSoC5/UART.c ****             #if(UART_RX_INTERRUPT_ENABLED)
 568:.\Generated_Source\PSoC5/UART.c ****                 UART_DisableRxInt();
 662              		.loc 1 568 0
 663 000c FFF7FEFF 		bl	UART_DisableRxInt
 569:.\Generated_Source\PSoC5/UART.c ****             #endif /* UART_RX_INTERRUPT_ENABLED */
 570:.\Generated_Source\PSoC5/UART.c **** 
 571:.\Generated_Source\PSoC5/UART.c ****             if( (UART_rxBufferRead != UART_rxBufferWrite) ||
 664              		.loc 1 571 0
 665 0010 40F20003 		movw	r3, #:lower16:UART_rxBufferRead
 666 0014 C0F20003 		movt	r3, #:upper16:UART_rxBufferRead
 667 0018 1B78     		ldrb	r3, [r3, #0]
 668 001a DAB2     		uxtb	r2, r3
 669 001c 40F20003 		movw	r3, #:lower16:UART_rxBufferWrite
 670 0020 C0F20003 		movt	r3, #:upper16:UART_rxBufferWrite
 671 0024 1B78     		ldrb	r3, [r3, #0]
 672 0026 DBB2     		uxtb	r3, r3
 673 0028 9A42     		cmp	r2, r3
 674 002a 07D1     		bne	.L32
 572:.\Generated_Source\PSoC5/UART.c ****                 (UART_rxBufferLoopDetect > 0u) )
 675              		.loc 1 572 0
 676 002c 40F20003 		movw	r3, #:lower16:UART_rxBufferLoopDetect
 677 0030 C0F20003 		movt	r3, #:upper16:UART_rxBufferLoopDetect
 678 0034 1B78     		ldrb	r3, [r3, #0]
ARM GAS  C:\Users\dwguo\AppData\Local\Temp\cceIZtOF.s 			page 23


 679 0036 DBB2     		uxtb	r3, r3
 680              		.loc 1 571 0
 681 0038 002B     		cmp	r3, #0
 682 003a 39D0     		beq	.L33
 683              	.L32:
 573:.\Generated_Source\PSoC5/UART.c ****             {
 574:.\Generated_Source\PSoC5/UART.c ****                 rxData = UART_rxBuffer[UART_rxBufferRead];
 684              		.loc 1 574 0
 685 003c 40F20003 		movw	r3, #:lower16:UART_rxBufferRead
 686 0040 C0F20003 		movt	r3, #:upper16:UART_rxBufferRead
 687 0044 1B78     		ldrb	r3, [r3, #0]
 688 0046 DBB2     		uxtb	r3, r3
 689 0048 1A46     		mov	r2, r3
 690 004a 40F20003 		movw	r3, #:lower16:UART_rxBuffer
 691 004e C0F20003 		movt	r3, #:upper16:UART_rxBuffer
 692 0052 9B5C     		ldrb	r3, [r3, r2]
 693 0054 BB71     		strb	r3, [r7, #6]
 575:.\Generated_Source\PSoC5/UART.c **** 
 576:.\Generated_Source\PSoC5/UART.c ****                 UART_rxBufferRead++;
 694              		.loc 1 576 0
 695 0056 40F20003 		movw	r3, #:lower16:UART_rxBufferRead
 696 005a C0F20003 		movt	r3, #:upper16:UART_rxBufferRead
 697 005e 1B78     		ldrb	r3, [r3, #0]
 698 0060 DBB2     		uxtb	r3, r3
 699 0062 03F10103 		add	r3, r3, #1
 700 0066 DAB2     		uxtb	r2, r3
 701 0068 40F20003 		movw	r3, #:lower16:UART_rxBufferRead
 702 006c C0F20003 		movt	r3, #:upper16:UART_rxBufferRead
 703 0070 1A70     		strb	r2, [r3, #0]
 577:.\Generated_Source\PSoC5/UART.c **** 
 578:.\Generated_Source\PSoC5/UART.c ****                 if(UART_rxBufferRead >= UART_RXBUFFERSIZE)
 704              		.loc 1 578 0
 705 0072 40F20003 		movw	r3, #:lower16:UART_rxBufferRead
 706 0076 C0F20003 		movt	r3, #:upper16:UART_rxBufferRead
 707 007a 1B78     		ldrb	r3, [r3, #0]
 708 007c DBB2     		uxtb	r3, r3
 709 007e 042B     		cmp	r3, #4
 710 0080 06D9     		bls	.L34
 579:.\Generated_Source\PSoC5/UART.c ****                 {
 580:.\Generated_Source\PSoC5/UART.c ****                     UART_rxBufferRead = 0u;
 711              		.loc 1 580 0
 712 0082 40F20003 		movw	r3, #:lower16:UART_rxBufferRead
 713 0086 C0F20003 		movt	r3, #:upper16:UART_rxBufferRead
 714 008a 4FF00002 		mov	r2, #0
 715 008e 1A70     		strb	r2, [r3, #0]
 716              	.L34:
 581:.\Generated_Source\PSoC5/UART.c ****                 }
 582:.\Generated_Source\PSoC5/UART.c **** 
 583:.\Generated_Source\PSoC5/UART.c ****                 if(UART_rxBufferLoopDetect > 0u ) 
 717              		.loc 1 583 0
 718 0090 40F20003 		movw	r3, #:lower16:UART_rxBufferLoopDetect
 719 0094 C0F20003 		movt	r3, #:upper16:UART_rxBufferLoopDetect
 720 0098 1B78     		ldrb	r3, [r3, #0]
 721 009a DBB2     		uxtb	r3, r3
 722 009c 002B     		cmp	r3, #0
 723 009e 21D0     		beq	.L38
 584:.\Generated_Source\PSoC5/UART.c ****                 {
ARM GAS  C:\Users\dwguo\AppData\Local\Temp\cceIZtOF.s 			page 24


 585:.\Generated_Source\PSoC5/UART.c ****                     UART_rxBufferLoopDetect = 0u;
 724              		.loc 1 585 0
 725 00a0 40F20003 		movw	r3, #:lower16:UART_rxBufferLoopDetect
 726 00a4 C0F20003 		movt	r3, #:upper16:UART_rxBufferLoopDetect
 727 00a8 4FF00002 		mov	r2, #0
 728 00ac 1A70     		strb	r2, [r3, #0]
 729              		.loc 1 571 0
 730 00ae 1AE0     		b	.L36
 731              	.L33:
 586:.\Generated_Source\PSoC5/UART.c ****                     #if( (UART_RX_INTERRUPT_ENABLED) && (UART_FLOW_CONTROL != 0u) && \
 587:.\Generated_Source\PSoC5/UART.c ****                          (UART_RXBUFFERSIZE > UART_FIFO_LENGTH) )
 588:.\Generated_Source\PSoC5/UART.c ****                         /* When Hardware Flow Control selected - return RX mask */
 589:.\Generated_Source\PSoC5/UART.c ****                         #if( UART_HD_ENABLED )
 590:.\Generated_Source\PSoC5/UART.c ****                             if((UART_CONTROL_REG & UART_CTRL_HD_SEND) == 0)
 591:.\Generated_Source\PSoC5/UART.c ****                             {   /* In Half duplex mode return RX mask only if 
 592:.\Generated_Source\PSoC5/UART.c ****                                 *  RX configuration set, otherwise 
 593:.\Generated_Source\PSoC5/UART.c ****                                 *  mask will be returned in LoadRxConfig() API. 
 594:.\Generated_Source\PSoC5/UART.c ****                                 */
 595:.\Generated_Source\PSoC5/UART.c ****                                 UART_RXSTATUS_MASK_REG  |= UART_RX_STS_FIFO_NOTEMPTY;
 596:.\Generated_Source\PSoC5/UART.c ****                             }
 597:.\Generated_Source\PSoC5/UART.c ****                         #else
 598:.\Generated_Source\PSoC5/UART.c ****                             UART_RXSTATUS_MASK_REG  |= UART_RX_STS_FIFO_NOTEMPTY;
 599:.\Generated_Source\PSoC5/UART.c ****                         #endif /* end UART_HD_ENABLED */
 600:.\Generated_Source\PSoC5/UART.c ****                     #endif /* UART_RX_INTERRUPT_ENABLED and Hardware flow control*/
 601:.\Generated_Source\PSoC5/UART.c ****                 }
 602:.\Generated_Source\PSoC5/UART.c **** 
 603:.\Generated_Source\PSoC5/UART.c ****             }
 604:.\Generated_Source\PSoC5/UART.c ****             else
 605:.\Generated_Source\PSoC5/UART.c ****             {   rxStatus =UART_RXSTATUS_REG;
 732              		.loc 1 605 0
 733 00b0 46F26A53 		movw	r3, #:lower16:1073767786
 734 00b4 C4F20003 		movt	r3, #:upper16:1073767786
 735 00b8 1B78     		ldrb	r3, [r3, #0]
 736 00ba FB71     		strb	r3, [r7, #7]
 606:.\Generated_Source\PSoC5/UART.c ****                 if(rxStatus & UART_RX_STS_FIFO_NOTEMPTY)
 737              		.loc 1 606 0
 738 00bc FB79     		ldrb	r3, [r7, #7]	@ zero_extendqisi2
 739 00be 03F02003 		and	r3, r3, #32
 740 00c2 002B     		cmp	r3, #0
 741 00c4 0FD0     		beq	.L36
 607:.\Generated_Source\PSoC5/UART.c ****                 {   /* Read received data from FIFO*/
 608:.\Generated_Source\PSoC5/UART.c ****                     rxData = UART_RXDATA_REG;
 742              		.loc 1 608 0
 743 00c6 46F24453 		movw	r3, #:lower16:1073767748
 744 00ca C4F20003 		movt	r3, #:upper16:1073767748
 745 00ce 1B78     		ldrb	r3, [r3, #0]
 746 00d0 BB71     		strb	r3, [r7, #6]
 609:.\Generated_Source\PSoC5/UART.c ****                     /*Check status on error*/
 610:.\Generated_Source\PSoC5/UART.c ****                     if(rxStatus & (UART_RX_STS_BREAK | UART_RX_STS_PAR_ERROR |
 747              		.loc 1 610 0
 748 00d2 FB79     		ldrb	r3, [r7, #7]	@ zero_extendqisi2
 749 00d4 03F01E03 		and	r3, r3, #30
 750 00d8 002B     		cmp	r3, #0
 751 00da 04D0     		beq	.L36
 611:.\Generated_Source\PSoC5/UART.c ****                                    UART_RX_STS_STOP_ERROR | UART_RX_STS_OVERRUN))
 612:.\Generated_Source\PSoC5/UART.c ****                     {
 613:.\Generated_Source\PSoC5/UART.c ****                         rxData = 0u;
ARM GAS  C:\Users\dwguo\AppData\Local\Temp\cceIZtOF.s 			page 25


 752              		.loc 1 613 0
 753 00dc 4FF00003 		mov	r3, #0
 754 00e0 BB71     		strb	r3, [r7, #6]
 755 00e2 00E0     		b	.L36
 756              	.L38:
 757              		.loc 1 571 0
 758 00e4 00BF     		nop
 759              	.L36:
 614:.\Generated_Source\PSoC5/UART.c ****                     }    
 615:.\Generated_Source\PSoC5/UART.c ****                 }
 616:.\Generated_Source\PSoC5/UART.c ****             }
 617:.\Generated_Source\PSoC5/UART.c **** 
 618:.\Generated_Source\PSoC5/UART.c ****             /* Enable Rx interrupt. */
 619:.\Generated_Source\PSoC5/UART.c ****             #if(UART_RX_INTERRUPT_ENABLED)
 620:.\Generated_Source\PSoC5/UART.c ****                 UART_EnableRxInt();
 760              		.loc 1 620 0
 761 00e6 FFF7FEFF 		bl	UART_EnableRxInt
 621:.\Generated_Source\PSoC5/UART.c ****             #endif /* UART_RX_INTERRUPT_ENABLED */
 622:.\Generated_Source\PSoC5/UART.c **** 
 623:.\Generated_Source\PSoC5/UART.c ****         #else /* UART_RXBUFFERSIZE > UART_FIFO_LENGTH */
 624:.\Generated_Source\PSoC5/UART.c **** 
 625:.\Generated_Source\PSoC5/UART.c ****             rxStatus =UART_RXSTATUS_REG;
 626:.\Generated_Source\PSoC5/UART.c ****             if(rxStatus & UART_RX_STS_FIFO_NOTEMPTY)
 627:.\Generated_Source\PSoC5/UART.c ****             {   /* Read received data from FIFO*/
 628:.\Generated_Source\PSoC5/UART.c ****                 rxData = UART_RXDATA_REG;
 629:.\Generated_Source\PSoC5/UART.c ****                 /*Check status on error*/
 630:.\Generated_Source\PSoC5/UART.c ****                 if(rxStatus & (UART_RX_STS_BREAK | UART_RX_STS_PAR_ERROR |
 631:.\Generated_Source\PSoC5/UART.c ****                                UART_RX_STS_STOP_ERROR | UART_RX_STS_OVERRUN))
 632:.\Generated_Source\PSoC5/UART.c ****                 {
 633:.\Generated_Source\PSoC5/UART.c ****                     rxData = 0u;
 634:.\Generated_Source\PSoC5/UART.c ****                 }
 635:.\Generated_Source\PSoC5/UART.c ****             }
 636:.\Generated_Source\PSoC5/UART.c ****         #endif /* UART_RXBUFFERSIZE > UART_FIFO_LENGTH */
 637:.\Generated_Source\PSoC5/UART.c **** 
 638:.\Generated_Source\PSoC5/UART.c ****         return(rxData);
 762              		.loc 1 638 0
 763 00ea BB79     		ldrb	r3, [r7, #6]	@ zero_extendqisi2
 639:.\Generated_Source\PSoC5/UART.c ****     }
 764              		.loc 1 639 0
 765 00ec 1846     		mov	r0, r3
 766 00ee 07F10807 		add	r7, r7, #8
 767 00f2 BD46     		mov	sp, r7
 768 00f4 80BD     		pop	{r7, pc}
 769              		.cfi_endproc
 770              	.LFE11:
 771              		.size	UART_GetChar, .-UART_GetChar
 772 00f6 00BF     		.section	.text.UART_GetByte,"ax",%progbits
 773              		.align	2
 774              		.global	UART_GetByte
 775              		.thumb
 776              		.thumb_func
 777              		.type	UART_GetByte, %function
 778              	UART_GetByte:
 779              	.LFB12:
 640:.\Generated_Source\PSoC5/UART.c **** 
 641:.\Generated_Source\PSoC5/UART.c **** 
 642:.\Generated_Source\PSoC5/UART.c ****     /*******************************************************************************
ARM GAS  C:\Users\dwguo\AppData\Local\Temp\cceIZtOF.s 			page 26


 643:.\Generated_Source\PSoC5/UART.c ****     * Function Name: UART_GetByte
 644:.\Generated_Source\PSoC5/UART.c ****     ********************************************************************************
 645:.\Generated_Source\PSoC5/UART.c ****     *
 646:.\Generated_Source\PSoC5/UART.c ****     * Summary:
 647:.\Generated_Source\PSoC5/UART.c ****     *  Grab the next available byte of data from the recieve FIFO
 648:.\Generated_Source\PSoC5/UART.c ****     *
 649:.\Generated_Source\PSoC5/UART.c ****     * Parameters:
 650:.\Generated_Source\PSoC5/UART.c ****     *  None.
 651:.\Generated_Source\PSoC5/UART.c ****     *
 652:.\Generated_Source\PSoC5/UART.c ****     * Return:
 653:.\Generated_Source\PSoC5/UART.c ****     *  MSB contains Status Register and LSB contains UART RX data
 654:.\Generated_Source\PSoC5/UART.c ****     *
 655:.\Generated_Source\PSoC5/UART.c ****     * Reentrant:
 656:.\Generated_Source\PSoC5/UART.c ****     *  No.
 657:.\Generated_Source\PSoC5/UART.c ****     *
 658:.\Generated_Source\PSoC5/UART.c ****     *******************************************************************************/
 659:.\Generated_Source\PSoC5/UART.c ****     uint16 UART_GetByte(void) 
 660:.\Generated_Source\PSoC5/UART.c ****     {
 780              		.loc 1 660 0
 781              		.cfi_startproc
 782              		@ args = 0, pretend = 0, frame = 0
 783              		@ frame_needed = 1, uses_anonymous_args = 0
 784 0000 98B5     		push	{r3, r4, r7, lr}
 785              	.LCFI31:
 786              		.cfi_def_cfa_offset 16
 787 0002 00AF     		add	r7, sp, #0
 788              		.cfi_offset 14, -4
 789              		.cfi_offset 7, -8
 790              		.cfi_offset 4, -12
 791              		.cfi_offset 3, -16
 792              	.LCFI32:
 793              		.cfi_def_cfa_register 7
 661:.\Generated_Source\PSoC5/UART.c ****         return ( ((uint16)UART_ReadRxStatus() << 8u) | UART_ReadRxData() );
 794              		.loc 1 661 0
 795 0004 FFF7FEFF 		bl	UART_ReadRxStatus
 796 0008 0346     		mov	r3, r0
 797 000a 4FEA0323 		lsl	r3, r3, #8
 798 000e 9CB2     		uxth	r4, r3
 799 0010 FFF7FEFF 		bl	UART_ReadRxData
 800 0014 0346     		mov	r3, r0
 801 0016 2246     		mov	r2, r4	@ movhi
 802 0018 42EA0303 		orr	r3, r2, r3
 803 001c 9BB2     		uxth	r3, r3
 804 001e 9BB2     		uxth	r3, r3
 662:.\Generated_Source\PSoC5/UART.c ****     }
 805              		.loc 1 662 0
 806 0020 1846     		mov	r0, r3
 807 0022 98BD     		pop	{r3, r4, r7, pc}
 808              		.cfi_endproc
 809              	.LFE12:
 810              		.size	UART_GetByte, .-UART_GetByte
 811              		.section	.text.UART_GetRxBufferSize,"ax",%progbits
 812              		.align	2
 813              		.global	UART_GetRxBufferSize
 814              		.thumb
 815              		.thumb_func
 816              		.type	UART_GetRxBufferSize, %function
ARM GAS  C:\Users\dwguo\AppData\Local\Temp\cceIZtOF.s 			page 27


 817              	UART_GetRxBufferSize:
 818              	.LFB13:
 663:.\Generated_Source\PSoC5/UART.c **** 
 664:.\Generated_Source\PSoC5/UART.c **** 
 665:.\Generated_Source\PSoC5/UART.c ****     /*******************************************************************************
 666:.\Generated_Source\PSoC5/UART.c ****     * Function Name: UART_GetRxBufferSize
 667:.\Generated_Source\PSoC5/UART.c ****     ********************************************************************************
 668:.\Generated_Source\PSoC5/UART.c ****     *
 669:.\Generated_Source\PSoC5/UART.c ****     * Summary:
 670:.\Generated_Source\PSoC5/UART.c ****     *  Determine the amount of bytes left in the RX buffer and return the count in
 671:.\Generated_Source\PSoC5/UART.c ****     *  bytes
 672:.\Generated_Source\PSoC5/UART.c ****     *
 673:.\Generated_Source\PSoC5/UART.c ****     * Parameters:
 674:.\Generated_Source\PSoC5/UART.c ****     *  None.
 675:.\Generated_Source\PSoC5/UART.c ****     *
 676:.\Generated_Source\PSoC5/UART.c ****     * Return:
 677:.\Generated_Source\PSoC5/UART.c ****     *  uint8: Integer count of the number of bytes left 
 678:.\Generated_Source\PSoC5/UART.c ****     *  in the RX buffer
 679:.\Generated_Source\PSoC5/UART.c ****     *
 680:.\Generated_Source\PSoC5/UART.c ****     * Global Variables:
 681:.\Generated_Source\PSoC5/UART.c ****     *  UART_rxBufferWrite - used to calculate left bytes. 
 682:.\Generated_Source\PSoC5/UART.c ****     *  UART_rxBufferRead - used to calculate left bytes.
 683:.\Generated_Source\PSoC5/UART.c ****     *  UART_rxBufferLoopDetect - checked to decide left bytes amount. 
 684:.\Generated_Source\PSoC5/UART.c ****     *
 685:.\Generated_Source\PSoC5/UART.c ****     * Reentrant:
 686:.\Generated_Source\PSoC5/UART.c ****     *  No.
 687:.\Generated_Source\PSoC5/UART.c ****     *
 688:.\Generated_Source\PSoC5/UART.c ****     * Theory:
 689:.\Generated_Source\PSoC5/UART.c ****     *  Allows the user to find out how full the RX Buffer is.
 690:.\Generated_Source\PSoC5/UART.c ****     *
 691:.\Generated_Source\PSoC5/UART.c ****     *******************************************************************************/
 692:.\Generated_Source\PSoC5/UART.c ****     uint8 UART_GetRxBufferSize(void) 
 693:.\Generated_Source\PSoC5/UART.c ****                                                             
 694:.\Generated_Source\PSoC5/UART.c ****     {
 819              		.loc 1 694 0
 820              		.cfi_startproc
 821              		@ args = 0, pretend = 0, frame = 8
 822              		@ frame_needed = 1, uses_anonymous_args = 0
 823 0000 80B5     		push	{r7, lr}
 824              	.LCFI33:
 825              		.cfi_def_cfa_offset 8
 826 0002 82B0     		sub	sp, sp, #8
 827              	.LCFI34:
 828              		.cfi_def_cfa_offset 16
 829 0004 00AF     		add	r7, sp, #0
 830              		.cfi_offset 14, -4
 831              		.cfi_offset 7, -8
 832              	.LCFI35:
 833              		.cfi_def_cfa_register 7
 695:.\Generated_Source\PSoC5/UART.c ****         uint8 size;
 696:.\Generated_Source\PSoC5/UART.c **** 
 697:.\Generated_Source\PSoC5/UART.c ****         #if(UART_RXBUFFERSIZE > UART_FIFO_LENGTH)
 698:.\Generated_Source\PSoC5/UART.c **** 
 699:.\Generated_Source\PSoC5/UART.c ****             /* Disable Rx interrupt. */
 700:.\Generated_Source\PSoC5/UART.c ****             /* Protect variables that could change on interrupt. */
 701:.\Generated_Source\PSoC5/UART.c ****             #if(UART_RX_INTERRUPT_ENABLED)
 702:.\Generated_Source\PSoC5/UART.c ****                 UART_DisableRxInt();
ARM GAS  C:\Users\dwguo\AppData\Local\Temp\cceIZtOF.s 			page 28


 834              		.loc 1 702 0
 835 0006 FFF7FEFF 		bl	UART_DisableRxInt
 703:.\Generated_Source\PSoC5/UART.c ****             #endif /* UART_RX_INTERRUPT_ENABLED */
 704:.\Generated_Source\PSoC5/UART.c **** 
 705:.\Generated_Source\PSoC5/UART.c ****             if(UART_rxBufferRead == UART_rxBufferWrite)
 836              		.loc 1 705 0
 837 000a 40F20003 		movw	r3, #:lower16:UART_rxBufferRead
 838 000e C0F20003 		movt	r3, #:upper16:UART_rxBufferRead
 839 0012 1B78     		ldrb	r3, [r3, #0]
 840 0014 DAB2     		uxtb	r2, r3
 841 0016 40F20003 		movw	r3, #:lower16:UART_rxBufferWrite
 842 001a C0F20003 		movt	r3, #:upper16:UART_rxBufferWrite
 843 001e 1B78     		ldrb	r3, [r3, #0]
 844 0020 DBB2     		uxtb	r3, r3
 845 0022 9A42     		cmp	r2, r3
 846 0024 0FD1     		bne	.L42
 706:.\Generated_Source\PSoC5/UART.c ****             {
 707:.\Generated_Source\PSoC5/UART.c ****                 if(UART_rxBufferLoopDetect > 0u)
 847              		.loc 1 707 0
 848 0026 40F20003 		movw	r3, #:lower16:UART_rxBufferLoopDetect
 849 002a C0F20003 		movt	r3, #:upper16:UART_rxBufferLoopDetect
 850 002e 1B78     		ldrb	r3, [r3, #0]
 851 0030 DBB2     		uxtb	r3, r3
 852 0032 002B     		cmp	r3, #0
 853 0034 03D0     		beq	.L43
 708:.\Generated_Source\PSoC5/UART.c ****                 {
 709:.\Generated_Source\PSoC5/UART.c ****                     size = UART_RXBUFFERSIZE;
 854              		.loc 1 709 0
 855 0036 4FF00503 		mov	r3, #5
 856 003a FB71     		strb	r3, [r7, #7]
 710:.\Generated_Source\PSoC5/UART.c ****                 }
 711:.\Generated_Source\PSoC5/UART.c ****                 else
 712:.\Generated_Source\PSoC5/UART.c ****                 {
 713:.\Generated_Source\PSoC5/UART.c ****                     size = 0u;
 857              		.loc 1 713 0
 858 003c 33E0     		b	.L45
 859              	.L43:
 860 003e 4FF00003 		mov	r3, #0
 861 0042 FB71     		strb	r3, [r7, #7]
 862 0044 2FE0     		b	.L45
 863              	.L42:
 714:.\Generated_Source\PSoC5/UART.c ****                 }
 715:.\Generated_Source\PSoC5/UART.c ****             }
 716:.\Generated_Source\PSoC5/UART.c ****             else if(UART_rxBufferRead < UART_rxBufferWrite)
 864              		.loc 1 716 0
 865 0046 40F20003 		movw	r3, #:lower16:UART_rxBufferRead
 866 004a C0F20003 		movt	r3, #:upper16:UART_rxBufferRead
 867 004e 1B78     		ldrb	r3, [r3, #0]
 868 0050 DAB2     		uxtb	r2, r3
 869 0052 40F20003 		movw	r3, #:lower16:UART_rxBufferWrite
 870 0056 C0F20003 		movt	r3, #:upper16:UART_rxBufferWrite
 871 005a 1B78     		ldrb	r3, [r3, #0]
 872 005c DBB2     		uxtb	r3, r3
 873 005e 9A42     		cmp	r2, r3
 874 0060 0FD2     		bcs	.L46
 717:.\Generated_Source\PSoC5/UART.c ****             {
 718:.\Generated_Source\PSoC5/UART.c ****                 size = (UART_rxBufferWrite - UART_rxBufferRead);
ARM GAS  C:\Users\dwguo\AppData\Local\Temp\cceIZtOF.s 			page 29


 875              		.loc 1 718 0
 876 0062 40F20003 		movw	r3, #:lower16:UART_rxBufferWrite
 877 0066 C0F20003 		movt	r3, #:upper16:UART_rxBufferWrite
 878 006a 1B78     		ldrb	r3, [r3, #0]
 879 006c DAB2     		uxtb	r2, r3
 880 006e 40F20003 		movw	r3, #:lower16:UART_rxBufferRead
 881 0072 C0F20003 		movt	r3, #:upper16:UART_rxBufferRead
 882 0076 1B78     		ldrb	r3, [r3, #0]
 883 0078 DBB2     		uxtb	r3, r3
 884 007a C3EB0203 		rsb	r3, r3, r2
 885 007e FB71     		strb	r3, [r7, #7]
 886 0080 11E0     		b	.L45
 887              	.L46:
 719:.\Generated_Source\PSoC5/UART.c ****             }
 720:.\Generated_Source\PSoC5/UART.c ****             else
 721:.\Generated_Source\PSoC5/UART.c ****             {
 722:.\Generated_Source\PSoC5/UART.c ****                 size = (UART_RXBUFFERSIZE - UART_rxBufferRead) + UART_rxBufferWrite;
 888              		.loc 1 722 0
 889 0082 40F20003 		movw	r3, #:lower16:UART_rxBufferWrite
 890 0086 C0F20003 		movt	r3, #:upper16:UART_rxBufferWrite
 891 008a 1B78     		ldrb	r3, [r3, #0]
 892 008c DAB2     		uxtb	r2, r3
 893 008e 40F20003 		movw	r3, #:lower16:UART_rxBufferRead
 894 0092 C0F20003 		movt	r3, #:upper16:UART_rxBufferRead
 895 0096 1B78     		ldrb	r3, [r3, #0]
 896 0098 DBB2     		uxtb	r3, r3
 897 009a C3EB0203 		rsb	r3, r3, r2
 898 009e DBB2     		uxtb	r3, r3
 899 00a0 03F10503 		add	r3, r3, #5
 900 00a4 FB71     		strb	r3, [r7, #7]
 901              	.L45:
 723:.\Generated_Source\PSoC5/UART.c ****             }
 724:.\Generated_Source\PSoC5/UART.c **** 
 725:.\Generated_Source\PSoC5/UART.c ****             /* Enable Rx interrupt. */
 726:.\Generated_Source\PSoC5/UART.c ****             #if(UART_RX_INTERRUPT_ENABLED)
 727:.\Generated_Source\PSoC5/UART.c ****                 UART_EnableRxInt();
 902              		.loc 1 727 0
 903 00a6 FFF7FEFF 		bl	UART_EnableRxInt
 728:.\Generated_Source\PSoC5/UART.c ****             #endif /* End UART_RX_INTERRUPT_ENABLED */
 729:.\Generated_Source\PSoC5/UART.c **** 
 730:.\Generated_Source\PSoC5/UART.c ****         #else /* UART_RXBUFFERSIZE > UART_FIFO_LENGTH */
 731:.\Generated_Source\PSoC5/UART.c **** 
 732:.\Generated_Source\PSoC5/UART.c ****             /* We can only know if there is data in the fifo. */
 733:.\Generated_Source\PSoC5/UART.c ****             size = (UART_RXSTATUS_REG & UART_RX_STS_FIFO_NOTEMPTY) ? 1u : 0u;
 734:.\Generated_Source\PSoC5/UART.c **** 
 735:.\Generated_Source\PSoC5/UART.c ****         #endif /* End UART_RXBUFFERSIZE > UART_FIFO_LENGTH */
 736:.\Generated_Source\PSoC5/UART.c **** 
 737:.\Generated_Source\PSoC5/UART.c ****         return(size);
 904              		.loc 1 737 0
 905 00aa FB79     		ldrb	r3, [r7, #7]	@ zero_extendqisi2
 738:.\Generated_Source\PSoC5/UART.c ****     }
 906              		.loc 1 738 0
 907 00ac 1846     		mov	r0, r3
 908 00ae 07F10807 		add	r7, r7, #8
 909 00b2 BD46     		mov	sp, r7
 910 00b4 80BD     		pop	{r7, pc}
 911              		.cfi_endproc
ARM GAS  C:\Users\dwguo\AppData\Local\Temp\cceIZtOF.s 			page 30


 912              	.LFE13:
 913              		.size	UART_GetRxBufferSize, .-UART_GetRxBufferSize
 914 00b6 00BF     		.section	.text.UART_ClearRxBuffer,"ax",%progbits
 915              		.align	2
 916              		.global	UART_ClearRxBuffer
 917              		.thumb
 918              		.thumb_func
 919              		.type	UART_ClearRxBuffer, %function
 920              	UART_ClearRxBuffer:
 921              	.LFB14:
 739:.\Generated_Source\PSoC5/UART.c **** 
 740:.\Generated_Source\PSoC5/UART.c **** 
 741:.\Generated_Source\PSoC5/UART.c ****     /*******************************************************************************
 742:.\Generated_Source\PSoC5/UART.c ****     * Function Name: UART_ClearRxBuffer
 743:.\Generated_Source\PSoC5/UART.c ****     ********************************************************************************
 744:.\Generated_Source\PSoC5/UART.c ****     *
 745:.\Generated_Source\PSoC5/UART.c ****     * Summary:
 746:.\Generated_Source\PSoC5/UART.c ****     *  Clears the RX RAM buffer by setting the read and write pointers both to zero.
 747:.\Generated_Source\PSoC5/UART.c ****     *  Clears hardware RX FIFO.
 748:.\Generated_Source\PSoC5/UART.c ****     *
 749:.\Generated_Source\PSoC5/UART.c ****     * Parameters:
 750:.\Generated_Source\PSoC5/UART.c ****     *  None.
 751:.\Generated_Source\PSoC5/UART.c ****     *
 752:.\Generated_Source\PSoC5/UART.c ****     * Return:
 753:.\Generated_Source\PSoC5/UART.c ****     *  None.
 754:.\Generated_Source\PSoC5/UART.c ****     *
 755:.\Generated_Source\PSoC5/UART.c ****     * Global Variables:
 756:.\Generated_Source\PSoC5/UART.c ****     *  UART_rxBufferWrite - cleared to zero. 
 757:.\Generated_Source\PSoC5/UART.c ****     *  UART_rxBufferRead - cleared to zero.
 758:.\Generated_Source\PSoC5/UART.c ****     *  UART_rxBufferLoopDetect - cleared to zero. 
 759:.\Generated_Source\PSoC5/UART.c ****     *  UART_rxBufferOverflow - cleared to zero. 
 760:.\Generated_Source\PSoC5/UART.c ****     *
 761:.\Generated_Source\PSoC5/UART.c ****     * Reentrant:
 762:.\Generated_Source\PSoC5/UART.c ****     *  No.
 763:.\Generated_Source\PSoC5/UART.c ****     *
 764:.\Generated_Source\PSoC5/UART.c ****     * Theory:
 765:.\Generated_Source\PSoC5/UART.c ****     *  Setting the pointers to zero makes the system believe there is no data to 
 766:.\Generated_Source\PSoC5/UART.c ****     *  read and writing will resume at address 0 overwriting any data that may 
 767:.\Generated_Source\PSoC5/UART.c ****     *  have remained in the RAM.
 768:.\Generated_Source\PSoC5/UART.c ****     *
 769:.\Generated_Source\PSoC5/UART.c ****     * Side Effects:
 770:.\Generated_Source\PSoC5/UART.c ****     *  Any received data not read from the RAM or FIFO buffer will be lost.
 771:.\Generated_Source\PSoC5/UART.c ****     *******************************************************************************/
 772:.\Generated_Source\PSoC5/UART.c ****     void UART_ClearRxBuffer(void) 
 773:.\Generated_Source\PSoC5/UART.c ****     {
 922              		.loc 1 773 0
 923              		.cfi_startproc
 924              		@ args = 0, pretend = 0, frame = 8
 925              		@ frame_needed = 1, uses_anonymous_args = 0
 926 0000 80B5     		push	{r7, lr}
 927              	.LCFI36:
 928              		.cfi_def_cfa_offset 8
 929 0002 82B0     		sub	sp, sp, #8
 930              	.LCFI37:
 931              		.cfi_def_cfa_offset 16
 932 0004 00AF     		add	r7, sp, #0
 933              		.cfi_offset 14, -4
ARM GAS  C:\Users\dwguo\AppData\Local\Temp\cceIZtOF.s 			page 31


 934              		.cfi_offset 7, -8
 935              	.LCFI38:
 936              		.cfi_def_cfa_register 7
 774:.\Generated_Source\PSoC5/UART.c ****         uint8 enableInterrupts;
 775:.\Generated_Source\PSoC5/UART.c ****         
 776:.\Generated_Source\PSoC5/UART.c ****         /* clear the HW FIFO */
 777:.\Generated_Source\PSoC5/UART.c ****         /* Enter critical section */
 778:.\Generated_Source\PSoC5/UART.c ****         enableInterrupts = CyEnterCriticalSection();        
 937              		.loc 1 778 0
 938 0006 FFF7FEFF 		bl	CyEnterCriticalSection
 939 000a 0346     		mov	r3, r0
 940 000c FB71     		strb	r3, [r7, #7]
 779:.\Generated_Source\PSoC5/UART.c ****         UART_RXDATA_AUX_CTL_REG |=  UART_RX_FIFO_CLR;
 941              		.loc 1 779 0
 942 000e 46F29453 		movw	r3, #:lower16:1073767828
 943 0012 C4F20003 		movt	r3, #:upper16:1073767828
 944 0016 46F29452 		movw	r2, #:lower16:1073767828
 945 001a C4F20002 		movt	r2, #:upper16:1073767828
 946 001e 1278     		ldrb	r2, [r2, #0]
 947 0020 D2B2     		uxtb	r2, r2
 948 0022 42F00102 		orr	r2, r2, #1
 949 0026 D2B2     		uxtb	r2, r2
 950 0028 1A70     		strb	r2, [r3, #0]
 780:.\Generated_Source\PSoC5/UART.c ****         UART_RXDATA_AUX_CTL_REG &= ~UART_RX_FIFO_CLR;
 951              		.loc 1 780 0
 952 002a 46F29453 		movw	r3, #:lower16:1073767828
 953 002e C4F20003 		movt	r3, #:upper16:1073767828
 954 0032 46F29452 		movw	r2, #:lower16:1073767828
 955 0036 C4F20002 		movt	r2, #:upper16:1073767828
 956 003a 1278     		ldrb	r2, [r2, #0]
 957 003c D2B2     		uxtb	r2, r2
 958 003e 02F0FE02 		and	r2, r2, #254
 959 0042 1A70     		strb	r2, [r3, #0]
 781:.\Generated_Source\PSoC5/UART.c ****         /* Exit critical section */
 782:.\Generated_Source\PSoC5/UART.c ****         CyExitCriticalSection(enableInterrupts);
 960              		.loc 1 782 0
 961 0044 FB79     		ldrb	r3, [r7, #7]	@ zero_extendqisi2
 962 0046 1846     		mov	r0, r3
 963 0048 FFF7FEFF 		bl	CyExitCriticalSection
 783:.\Generated_Source\PSoC5/UART.c ****         
 784:.\Generated_Source\PSoC5/UART.c ****         #if(UART_RXBUFFERSIZE > UART_FIFO_LENGTH)
 785:.\Generated_Source\PSoC5/UART.c ****             /* Disable Rx interrupt. */
 786:.\Generated_Source\PSoC5/UART.c ****             /* Protect variables that could change on interrupt. */
 787:.\Generated_Source\PSoC5/UART.c ****             #if(UART_RX_INTERRUPT_ENABLED)
 788:.\Generated_Source\PSoC5/UART.c ****                 UART_DisableRxInt();
 964              		.loc 1 788 0
 965 004c FFF7FEFF 		bl	UART_DisableRxInt
 789:.\Generated_Source\PSoC5/UART.c ****             #endif /* End UART_RX_INTERRUPT_ENABLED */
 790:.\Generated_Source\PSoC5/UART.c **** 
 791:.\Generated_Source\PSoC5/UART.c ****             UART_rxBufferRead = 0u;
 966              		.loc 1 791 0
 967 0050 40F20003 		movw	r3, #:lower16:UART_rxBufferRead
 968 0054 C0F20003 		movt	r3, #:upper16:UART_rxBufferRead
 969 0058 4FF00002 		mov	r2, #0
 970 005c 1A70     		strb	r2, [r3, #0]
 792:.\Generated_Source\PSoC5/UART.c ****             UART_rxBufferWrite = 0u;
 971              		.loc 1 792 0
ARM GAS  C:\Users\dwguo\AppData\Local\Temp\cceIZtOF.s 			page 32


 972 005e 40F20003 		movw	r3, #:lower16:UART_rxBufferWrite
 973 0062 C0F20003 		movt	r3, #:upper16:UART_rxBufferWrite
 974 0066 4FF00002 		mov	r2, #0
 975 006a 1A70     		strb	r2, [r3, #0]
 793:.\Generated_Source\PSoC5/UART.c ****             UART_rxBufferLoopDetect = 0u;
 976              		.loc 1 793 0
 977 006c 40F20003 		movw	r3, #:lower16:UART_rxBufferLoopDetect
 978 0070 C0F20003 		movt	r3, #:upper16:UART_rxBufferLoopDetect
 979 0074 4FF00002 		mov	r2, #0
 980 0078 1A70     		strb	r2, [r3, #0]
 794:.\Generated_Source\PSoC5/UART.c ****             UART_rxBufferOverflow = 0u;
 981              		.loc 1 794 0
 982 007a 40F20003 		movw	r3, #:lower16:UART_rxBufferOverflow
 983 007e C0F20003 		movt	r3, #:upper16:UART_rxBufferOverflow
 984 0082 4FF00002 		mov	r2, #0
 985 0086 1A70     		strb	r2, [r3, #0]
 795:.\Generated_Source\PSoC5/UART.c **** 
 796:.\Generated_Source\PSoC5/UART.c ****             /* Enable Rx interrupt. */
 797:.\Generated_Source\PSoC5/UART.c ****             #if(UART_RX_INTERRUPT_ENABLED)
 798:.\Generated_Source\PSoC5/UART.c ****                 UART_EnableRxInt();
 986              		.loc 1 798 0
 987 0088 FFF7FEFF 		bl	UART_EnableRxInt
 799:.\Generated_Source\PSoC5/UART.c ****             #endif /* End UART_RX_INTERRUPT_ENABLED */
 800:.\Generated_Source\PSoC5/UART.c ****         #endif /* End UART_RXBUFFERSIZE > UART_FIFO_LENGTH */
 801:.\Generated_Source\PSoC5/UART.c ****         
 802:.\Generated_Source\PSoC5/UART.c ****     }
 988              		.loc 1 802 0
 989 008c 07F10807 		add	r7, r7, #8
 990 0090 BD46     		mov	sp, r7
 991 0092 80BD     		pop	{r7, pc}
 992              		.cfi_endproc
 993              	.LFE14:
 994              		.size	UART_ClearRxBuffer, .-UART_ClearRxBuffer
 995              		.section	.text.UART_SetRxAddressMode,"ax",%progbits
 996              		.align	2
 997              		.global	UART_SetRxAddressMode
 998              		.thumb
 999              		.thumb_func
 1000              		.type	UART_SetRxAddressMode, %function
 1001              	UART_SetRxAddressMode:
 1002              	.LFB15:
 803:.\Generated_Source\PSoC5/UART.c **** 
 804:.\Generated_Source\PSoC5/UART.c **** 
 805:.\Generated_Source\PSoC5/UART.c ****     /*******************************************************************************
 806:.\Generated_Source\PSoC5/UART.c ****     * Function Name: UART_SetRxAddressMode
 807:.\Generated_Source\PSoC5/UART.c ****     ********************************************************************************
 808:.\Generated_Source\PSoC5/UART.c ****     *
 809:.\Generated_Source\PSoC5/UART.c ****     * Summary:
 810:.\Generated_Source\PSoC5/UART.c ****     *  Set the receive addressing mode
 811:.\Generated_Source\PSoC5/UART.c ****     *
 812:.\Generated_Source\PSoC5/UART.c ****     * Parameters:
 813:.\Generated_Source\PSoC5/UART.c ****     *  addressMode: Enumerated value indicating the mode of RX addressing
 814:.\Generated_Source\PSoC5/UART.c ****     *  UART__B_UART__AM_SW_BYTE_BYTE -  Software Byte-by-Byte address 
 815:.\Generated_Source\PSoC5/UART.c ****     *                                               detection
 816:.\Generated_Source\PSoC5/UART.c ****     *  UART__B_UART__AM_SW_DETECT_TO_BUFFER - Software Detect to Buffer 
 817:.\Generated_Source\PSoC5/UART.c ****     *                                               address detection
 818:.\Generated_Source\PSoC5/UART.c ****     *  UART__B_UART__AM_HW_BYTE_BY_BYTE - Hardware Byte-by-Byte address 
ARM GAS  C:\Users\dwguo\AppData\Local\Temp\cceIZtOF.s 			page 33


 819:.\Generated_Source\PSoC5/UART.c ****     *                                               detection
 820:.\Generated_Source\PSoC5/UART.c ****     *  UART__B_UART__AM_HW_DETECT_TO_BUFFER - Hardware Detect to Buffer 
 821:.\Generated_Source\PSoC5/UART.c ****     *                                               address detection
 822:.\Generated_Source\PSoC5/UART.c ****     *  UART__B_UART__AM_NONE - No address detection
 823:.\Generated_Source\PSoC5/UART.c ****     *
 824:.\Generated_Source\PSoC5/UART.c ****     * Return:
 825:.\Generated_Source\PSoC5/UART.c ****     *  None.
 826:.\Generated_Source\PSoC5/UART.c ****     *
 827:.\Generated_Source\PSoC5/UART.c ****     * Global Variables:
 828:.\Generated_Source\PSoC5/UART.c ****     *  UART_rxAddressMode - the parameter stored in this variable for 
 829:.\Generated_Source\PSoC5/UART.c ****     *   the farther usage in RX ISR.
 830:.\Generated_Source\PSoC5/UART.c ****     *  UART_rxAddressDetected - set to initial state (0).
 831:.\Generated_Source\PSoC5/UART.c ****     *
 832:.\Generated_Source\PSoC5/UART.c ****     *******************************************************************************/
 833:.\Generated_Source\PSoC5/UART.c ****     void UART_SetRxAddressMode(uint8 addressMode)  
 834:.\Generated_Source\PSoC5/UART.c ****                                                         
 835:.\Generated_Source\PSoC5/UART.c ****     {
 1003              		.loc 1 835 0
 1004              		.cfi_startproc
 1005              		@ args = 0, pretend = 0, frame = 8
 1006              		@ frame_needed = 1, uses_anonymous_args = 0
 1007              		@ link register save eliminated.
 1008 0000 80B4     		push	{r7}
 1009              	.LCFI39:
 1010              		.cfi_def_cfa_offset 4
 1011 0002 83B0     		sub	sp, sp, #12
 1012              	.LCFI40:
 1013              		.cfi_def_cfa_offset 16
 1014 0004 00AF     		add	r7, sp, #0
 1015              		.cfi_offset 7, -4
 1016              	.LCFI41:
 1017              		.cfi_def_cfa_register 7
 1018 0006 0346     		mov	r3, r0
 1019 0008 FB71     		strb	r3, [r7, #7]
 836:.\Generated_Source\PSoC5/UART.c ****         #if(UART_RXHW_ADDRESS_ENABLED)
 837:.\Generated_Source\PSoC5/UART.c ****             #if(UART_CONTROL_REG_REMOVED)
 838:.\Generated_Source\PSoC5/UART.c ****                 addressMode = addressMode;
 839:.\Generated_Source\PSoC5/UART.c ****             #else /* UART_CONTROL_REG_REMOVED */
 840:.\Generated_Source\PSoC5/UART.c ****                 uint8 tmpCtrl = 0u;
 841:.\Generated_Source\PSoC5/UART.c ****                 tmpCtrl = UART_CONTROL_REG & ~UART_CTRL_RXADDR_MODE_MASK;
 842:.\Generated_Source\PSoC5/UART.c ****                 tmpCtrl |= ((addressMode << UART_CTRL_RXADDR_MODE0_SHIFT) & 
 843:.\Generated_Source\PSoC5/UART.c ****                            UART_CTRL_RXADDR_MODE_MASK);
 844:.\Generated_Source\PSoC5/UART.c ****                 UART_CONTROL_REG = tmpCtrl;
 845:.\Generated_Source\PSoC5/UART.c ****                 #if(UART_RX_INTERRUPT_ENABLED && \
 846:.\Generated_Source\PSoC5/UART.c ****                    (UART_RXBUFFERSIZE > UART_FIFO_LENGTH) )
 847:.\Generated_Source\PSoC5/UART.c ****                     UART_rxAddressMode = addressMode;
 848:.\Generated_Source\PSoC5/UART.c ****                     UART_rxAddressDetected = 0u;
 849:.\Generated_Source\PSoC5/UART.c ****                 #endif /* End UART_RXBUFFERSIZE > UART_FIFO_LENGTH*/   
 850:.\Generated_Source\PSoC5/UART.c ****             #endif /* End UART_CONTROL_REG_REMOVED */
 851:.\Generated_Source\PSoC5/UART.c ****         #else /* UART_RXHW_ADDRESS_ENABLED */
 852:.\Generated_Source\PSoC5/UART.c ****             addressMode = addressMode;
 853:.\Generated_Source\PSoC5/UART.c ****         #endif /* End UART_RXHW_ADDRESS_ENABLED */
 854:.\Generated_Source\PSoC5/UART.c ****     }
 1020              		.loc 1 854 0
 1021 000a 07F10C07 		add	r7, r7, #12
 1022 000e BD46     		mov	sp, r7
 1023 0010 80BC     		pop	{r7}
ARM GAS  C:\Users\dwguo\AppData\Local\Temp\cceIZtOF.s 			page 34


 1024 0012 7047     		bx	lr
 1025              		.cfi_endproc
 1026              	.LFE15:
 1027              		.size	UART_SetRxAddressMode, .-UART_SetRxAddressMode
 1028              		.section	.text.UART_SetRxAddress1,"ax",%progbits
 1029              		.align	2
 1030              		.global	UART_SetRxAddress1
 1031              		.thumb
 1032              		.thumb_func
 1033              		.type	UART_SetRxAddress1, %function
 1034              	UART_SetRxAddress1:
 1035              	.LFB16:
 855:.\Generated_Source\PSoC5/UART.c **** 
 856:.\Generated_Source\PSoC5/UART.c **** 
 857:.\Generated_Source\PSoC5/UART.c ****     /*******************************************************************************
 858:.\Generated_Source\PSoC5/UART.c ****     * Function Name: UART_SetRxAddress1
 859:.\Generated_Source\PSoC5/UART.c ****     ********************************************************************************
 860:.\Generated_Source\PSoC5/UART.c ****     *
 861:.\Generated_Source\PSoC5/UART.c ****     * Summary:
 862:.\Generated_Source\PSoC5/UART.c ****     *  Set the first hardware address compare value
 863:.\Generated_Source\PSoC5/UART.c ****     *
 864:.\Generated_Source\PSoC5/UART.c ****     * Parameters:
 865:.\Generated_Source\PSoC5/UART.c ****     *  address
 866:.\Generated_Source\PSoC5/UART.c ****     *
 867:.\Generated_Source\PSoC5/UART.c ****     * Return:
 868:.\Generated_Source\PSoC5/UART.c ****     *  None.
 869:.\Generated_Source\PSoC5/UART.c ****     *
 870:.\Generated_Source\PSoC5/UART.c ****     *******************************************************************************/
 871:.\Generated_Source\PSoC5/UART.c ****     void UART_SetRxAddress1(uint8 address) 
 872:.\Generated_Source\PSoC5/UART.c **** 
 873:.\Generated_Source\PSoC5/UART.c ****     {
 1036              		.loc 1 873 0
 1037              		.cfi_startproc
 1038              		@ args = 0, pretend = 0, frame = 8
 1039              		@ frame_needed = 1, uses_anonymous_args = 0
 1040              		@ link register save eliminated.
 1041 0000 80B4     		push	{r7}
 1042              	.LCFI42:
 1043              		.cfi_def_cfa_offset 4
 1044 0002 83B0     		sub	sp, sp, #12
 1045              	.LCFI43:
 1046              		.cfi_def_cfa_offset 16
 1047 0004 00AF     		add	r7, sp, #0
 1048              		.cfi_offset 7, -4
 1049              	.LCFI44:
 1050              		.cfi_def_cfa_register 7
 1051 0006 0346     		mov	r3, r0
 1052 0008 FB71     		strb	r3, [r7, #7]
 874:.\Generated_Source\PSoC5/UART.c ****         UART_RXADDRESS1_REG = address;
 1053              		.loc 1 874 0
 1054 000a 46F22453 		movw	r3, #:lower16:1073767716
 1055 000e C4F20003 		movt	r3, #:upper16:1073767716
 1056 0012 FA79     		ldrb	r2, [r7, #7]
 1057 0014 1A70     		strb	r2, [r3, #0]
 875:.\Generated_Source\PSoC5/UART.c ****     }
 1058              		.loc 1 875 0
 1059 0016 07F10C07 		add	r7, r7, #12
ARM GAS  C:\Users\dwguo\AppData\Local\Temp\cceIZtOF.s 			page 35


 1060 001a BD46     		mov	sp, r7
 1061 001c 80BC     		pop	{r7}
 1062 001e 7047     		bx	lr
 1063              		.cfi_endproc
 1064              	.LFE16:
 1065              		.size	UART_SetRxAddress1, .-UART_SetRxAddress1
 1066              		.section	.text.UART_SetRxAddress2,"ax",%progbits
 1067              		.align	2
 1068              		.global	UART_SetRxAddress2
 1069              		.thumb
 1070              		.thumb_func
 1071              		.type	UART_SetRxAddress2, %function
 1072              	UART_SetRxAddress2:
 1073              	.LFB17:
 876:.\Generated_Source\PSoC5/UART.c **** 
 877:.\Generated_Source\PSoC5/UART.c **** 
 878:.\Generated_Source\PSoC5/UART.c ****     /*******************************************************************************
 879:.\Generated_Source\PSoC5/UART.c ****     * Function Name: UART_SetRxAddress2
 880:.\Generated_Source\PSoC5/UART.c ****     ********************************************************************************
 881:.\Generated_Source\PSoC5/UART.c ****     *
 882:.\Generated_Source\PSoC5/UART.c ****     * Summary:
 883:.\Generated_Source\PSoC5/UART.c ****     *  Set the second hardware address compare value
 884:.\Generated_Source\PSoC5/UART.c ****     *
 885:.\Generated_Source\PSoC5/UART.c ****     * Parameters:
 886:.\Generated_Source\PSoC5/UART.c ****     *  address
 887:.\Generated_Source\PSoC5/UART.c ****     *
 888:.\Generated_Source\PSoC5/UART.c ****     * Return:
 889:.\Generated_Source\PSoC5/UART.c ****     *  None.
 890:.\Generated_Source\PSoC5/UART.c ****     *
 891:.\Generated_Source\PSoC5/UART.c ****     *******************************************************************************/
 892:.\Generated_Source\PSoC5/UART.c ****     void UART_SetRxAddress2(uint8 address) 
 893:.\Generated_Source\PSoC5/UART.c ****     {
 1074              		.loc 1 893 0
 1075              		.cfi_startproc
 1076              		@ args = 0, pretend = 0, frame = 8
 1077              		@ frame_needed = 1, uses_anonymous_args = 0
 1078              		@ link register save eliminated.
 1079 0000 80B4     		push	{r7}
 1080              	.LCFI45:
 1081              		.cfi_def_cfa_offset 4
 1082 0002 83B0     		sub	sp, sp, #12
 1083              	.LCFI46:
 1084              		.cfi_def_cfa_offset 16
 1085 0004 00AF     		add	r7, sp, #0
 1086              		.cfi_offset 7, -4
 1087              	.LCFI47:
 1088              		.cfi_def_cfa_register 7
 1089 0006 0346     		mov	r3, r0
 1090 0008 FB71     		strb	r3, [r7, #7]
 894:.\Generated_Source\PSoC5/UART.c ****         UART_RXADDRESS2_REG = address;
 1091              		.loc 1 894 0
 1092 000a 46F23453 		movw	r3, #:lower16:1073767732
 1093 000e C4F20003 		movt	r3, #:upper16:1073767732
 1094 0012 FA79     		ldrb	r2, [r7, #7]
 1095 0014 1A70     		strb	r2, [r3, #0]
 895:.\Generated_Source\PSoC5/UART.c ****     }
 1096              		.loc 1 895 0
ARM GAS  C:\Users\dwguo\AppData\Local\Temp\cceIZtOF.s 			page 36


 1097 0016 07F10C07 		add	r7, r7, #12
 1098 001a BD46     		mov	sp, r7
 1099 001c 80BC     		pop	{r7}
 1100 001e 7047     		bx	lr
 1101              		.cfi_endproc
 1102              	.LFE17:
 1103              		.size	UART_SetRxAddress2, .-UART_SetRxAddress2
 1104              		.section	.text.UART_SetTxInterruptMode,"ax",%progbits
 1105              		.align	2
 1106              		.global	UART_SetTxInterruptMode
 1107              		.thumb
 1108              		.thumb_func
 1109              		.type	UART_SetTxInterruptMode, %function
 1110              	UART_SetTxInterruptMode:
 1111              	.LFB18:
 896:.\Generated_Source\PSoC5/UART.c ****         
 897:.\Generated_Source\PSoC5/UART.c **** #endif  /* UART_RX_ENABLED || UART_HD_ENABLED*/
 898:.\Generated_Source\PSoC5/UART.c **** 
 899:.\Generated_Source\PSoC5/UART.c **** 
 900:.\Generated_Source\PSoC5/UART.c **** #if( (UART_TX_ENABLED) || (UART_HD_ENABLED) )
 901:.\Generated_Source\PSoC5/UART.c **** 
 902:.\Generated_Source\PSoC5/UART.c ****     #if(UART_TX_INTERRUPT_ENABLED)
 903:.\Generated_Source\PSoC5/UART.c **** 
 904:.\Generated_Source\PSoC5/UART.c ****         /*******************************************************************************
 905:.\Generated_Source\PSoC5/UART.c ****         * Function Name: UART_EnableTxInt
 906:.\Generated_Source\PSoC5/UART.c ****         ********************************************************************************
 907:.\Generated_Source\PSoC5/UART.c ****         *
 908:.\Generated_Source\PSoC5/UART.c ****         * Summary:
 909:.\Generated_Source\PSoC5/UART.c ****         *  Enable TX interrupt generation
 910:.\Generated_Source\PSoC5/UART.c ****         *
 911:.\Generated_Source\PSoC5/UART.c ****         * Parameters:
 912:.\Generated_Source\PSoC5/UART.c ****         *  None.
 913:.\Generated_Source\PSoC5/UART.c ****         *
 914:.\Generated_Source\PSoC5/UART.c ****         * Return:
 915:.\Generated_Source\PSoC5/UART.c ****         *  None.
 916:.\Generated_Source\PSoC5/UART.c ****         *
 917:.\Generated_Source\PSoC5/UART.c ****         * Theory:
 918:.\Generated_Source\PSoC5/UART.c ****         *  Enable the interrupt output -or- the interrupt component itself
 919:.\Generated_Source\PSoC5/UART.c ****         *
 920:.\Generated_Source\PSoC5/UART.c ****         *******************************************************************************/
 921:.\Generated_Source\PSoC5/UART.c ****         void UART_EnableTxInt(void) 
 922:.\Generated_Source\PSoC5/UART.c ****         {
 923:.\Generated_Source\PSoC5/UART.c ****             CyIntEnable(UART_TX_VECT_NUM);
 924:.\Generated_Source\PSoC5/UART.c ****         }
 925:.\Generated_Source\PSoC5/UART.c **** 
 926:.\Generated_Source\PSoC5/UART.c **** 
 927:.\Generated_Source\PSoC5/UART.c ****         /*******************************************************************************
 928:.\Generated_Source\PSoC5/UART.c ****         * Function Name: UART_DisableTxInt
 929:.\Generated_Source\PSoC5/UART.c ****         ********************************************************************************
 930:.\Generated_Source\PSoC5/UART.c ****         *
 931:.\Generated_Source\PSoC5/UART.c ****         * Summary:
 932:.\Generated_Source\PSoC5/UART.c ****         *  Disable TX interrupt generation
 933:.\Generated_Source\PSoC5/UART.c ****         *
 934:.\Generated_Source\PSoC5/UART.c ****         * Parameters:
 935:.\Generated_Source\PSoC5/UART.c ****         *  None.
 936:.\Generated_Source\PSoC5/UART.c ****         *
 937:.\Generated_Source\PSoC5/UART.c ****         * Return:
ARM GAS  C:\Users\dwguo\AppData\Local\Temp\cceIZtOF.s 			page 37


 938:.\Generated_Source\PSoC5/UART.c ****         *  None.
 939:.\Generated_Source\PSoC5/UART.c ****         *
 940:.\Generated_Source\PSoC5/UART.c ****         * Theory:
 941:.\Generated_Source\PSoC5/UART.c ****         *  Disable the interrupt output -or- the interrupt component itself
 942:.\Generated_Source\PSoC5/UART.c ****         *
 943:.\Generated_Source\PSoC5/UART.c ****         *******************************************************************************/
 944:.\Generated_Source\PSoC5/UART.c ****         void UART_DisableTxInt(void) 
 945:.\Generated_Source\PSoC5/UART.c ****         {
 946:.\Generated_Source\PSoC5/UART.c ****             CyIntDisable(UART_TX_VECT_NUM);
 947:.\Generated_Source\PSoC5/UART.c ****         }
 948:.\Generated_Source\PSoC5/UART.c **** 
 949:.\Generated_Source\PSoC5/UART.c ****     #endif /* UART_TX_INTERRUPT_ENABLED */
 950:.\Generated_Source\PSoC5/UART.c **** 
 951:.\Generated_Source\PSoC5/UART.c **** 
 952:.\Generated_Source\PSoC5/UART.c ****     /*******************************************************************************
 953:.\Generated_Source\PSoC5/UART.c ****     * Function Name: UART_SetTxInterruptMode
 954:.\Generated_Source\PSoC5/UART.c ****     ********************************************************************************
 955:.\Generated_Source\PSoC5/UART.c ****     *
 956:.\Generated_Source\PSoC5/UART.c ****     * Summary:
 957:.\Generated_Source\PSoC5/UART.c ****     *  Configure which status bits trigger an interrupt event
 958:.\Generated_Source\PSoC5/UART.c ****     *
 959:.\Generated_Source\PSoC5/UART.c ****     * Parameters:
 960:.\Generated_Source\PSoC5/UART.c ****     *  intSrc: An or'd combination of the desired status bit masks (defined in
 961:.\Generated_Source\PSoC5/UART.c ****     *          the header file)
 962:.\Generated_Source\PSoC5/UART.c ****     *
 963:.\Generated_Source\PSoC5/UART.c ****     * Return:
 964:.\Generated_Source\PSoC5/UART.c ****     *  None.
 965:.\Generated_Source\PSoC5/UART.c ****     *
 966:.\Generated_Source\PSoC5/UART.c ****     * Theory:
 967:.\Generated_Source\PSoC5/UART.c ****     *  Enables the output of specific status bits to the interrupt controller
 968:.\Generated_Source\PSoC5/UART.c ****     *
 969:.\Generated_Source\PSoC5/UART.c ****     *******************************************************************************/
 970:.\Generated_Source\PSoC5/UART.c ****     void UART_SetTxInterruptMode(uint8 intSrc) 
 971:.\Generated_Source\PSoC5/UART.c ****     {
 1112              		.loc 1 971 0
 1113              		.cfi_startproc
 1114              		@ args = 0, pretend = 0, frame = 8
 1115              		@ frame_needed = 1, uses_anonymous_args = 0
 1116              		@ link register save eliminated.
 1117 0000 80B4     		push	{r7}
 1118              	.LCFI48:
 1119              		.cfi_def_cfa_offset 4
 1120 0002 83B0     		sub	sp, sp, #12
 1121              	.LCFI49:
 1122              		.cfi_def_cfa_offset 16
 1123 0004 00AF     		add	r7, sp, #0
 1124              		.cfi_offset 7, -4
 1125              	.LCFI50:
 1126              		.cfi_def_cfa_register 7
 1127 0006 0346     		mov	r3, r0
 1128 0008 FB71     		strb	r3, [r7, #7]
 972:.\Generated_Source\PSoC5/UART.c ****         UART_TXSTATUS_MASK_REG = intSrc;
 1129              		.loc 1 972 0
 1130 000a 46F28243 		movw	r3, #:lower16:1073767554
 1131 000e C4F20003 		movt	r3, #:upper16:1073767554
 1132 0012 FA79     		ldrb	r2, [r7, #7]
 1133 0014 1A70     		strb	r2, [r3, #0]
ARM GAS  C:\Users\dwguo\AppData\Local\Temp\cceIZtOF.s 			page 38


 973:.\Generated_Source\PSoC5/UART.c ****     }
 1134              		.loc 1 973 0
 1135 0016 07F10C07 		add	r7, r7, #12
 1136 001a BD46     		mov	sp, r7
 1137 001c 80BC     		pop	{r7}
 1138 001e 7047     		bx	lr
 1139              		.cfi_endproc
 1140              	.LFE18:
 1141              		.size	UART_SetTxInterruptMode, .-UART_SetTxInterruptMode
 1142              		.section	.text.UART_WriteTxData,"ax",%progbits
 1143              		.align	2
 1144              		.global	UART_WriteTxData
 1145              		.thumb
 1146              		.thumb_func
 1147              		.type	UART_WriteTxData, %function
 1148              	UART_WriteTxData:
 1149              	.LFB19:
 974:.\Generated_Source\PSoC5/UART.c **** 
 975:.\Generated_Source\PSoC5/UART.c **** 
 976:.\Generated_Source\PSoC5/UART.c ****     /*******************************************************************************
 977:.\Generated_Source\PSoC5/UART.c ****     * Function Name: UART_WriteTxData
 978:.\Generated_Source\PSoC5/UART.c ****     ********************************************************************************
 979:.\Generated_Source\PSoC5/UART.c ****     *
 980:.\Generated_Source\PSoC5/UART.c ****     * Summary:
 981:.\Generated_Source\PSoC5/UART.c ****     *  Write a byte of data to the Transmit FIFO or TX buffer to be sent when the 
 982:.\Generated_Source\PSoC5/UART.c ****     *  bus is available. WriteTxData sends a byte without checking for buffer room 
 983:.\Generated_Source\PSoC5/UART.c ****     *  or status. It is up to the user to separately check status.    
 984:.\Generated_Source\PSoC5/UART.c ****     *
 985:.\Generated_Source\PSoC5/UART.c ****     * Parameters:
 986:.\Generated_Source\PSoC5/UART.c ****     *  TXDataByte: byte of data to place in the transmit FIFO
 987:.\Generated_Source\PSoC5/UART.c ****     *
 988:.\Generated_Source\PSoC5/UART.c ****     * Return:
 989:.\Generated_Source\PSoC5/UART.c ****     * void
 990:.\Generated_Source\PSoC5/UART.c ****     *
 991:.\Generated_Source\PSoC5/UART.c ****     * Global Variables:
 992:.\Generated_Source\PSoC5/UART.c ****     *  UART_txBuffer - RAM buffer pointer for save data for transmission
 993:.\Generated_Source\PSoC5/UART.c ****     *  UART_txBufferWrite - cyclic index for write to txBuffer, 
 994:.\Generated_Source\PSoC5/UART.c ****     *    incremented after each byte saved to buffer.
 995:.\Generated_Source\PSoC5/UART.c ****     *  UART_txBufferRead - cyclic index for read from txBuffer, 
 996:.\Generated_Source\PSoC5/UART.c ****     *    checked to identify the condition to write to FIFO directly or to TX buffer
 997:.\Generated_Source\PSoC5/UART.c ****     *  UART_initVar - checked to identify that the component has been  
 998:.\Generated_Source\PSoC5/UART.c ****     *    initialized.
 999:.\Generated_Source\PSoC5/UART.c ****     *
1000:.\Generated_Source\PSoC5/UART.c ****     * Reentrant:
1001:.\Generated_Source\PSoC5/UART.c ****     *  No.
1002:.\Generated_Source\PSoC5/UART.c ****     *
1003:.\Generated_Source\PSoC5/UART.c ****     *******************************************************************************/
1004:.\Generated_Source\PSoC5/UART.c ****     void UART_WriteTxData(uint8 txDataByte) 
1005:.\Generated_Source\PSoC5/UART.c ****     {
 1150              		.loc 1 1005 0
 1151              		.cfi_startproc
 1152              		@ args = 0, pretend = 0, frame = 8
 1153              		@ frame_needed = 1, uses_anonymous_args = 0
 1154              		@ link register save eliminated.
 1155 0000 80B4     		push	{r7}
 1156              	.LCFI51:
 1157              		.cfi_def_cfa_offset 4
ARM GAS  C:\Users\dwguo\AppData\Local\Temp\cceIZtOF.s 			page 39


 1158 0002 83B0     		sub	sp, sp, #12
 1159              	.LCFI52:
 1160              		.cfi_def_cfa_offset 16
 1161 0004 00AF     		add	r7, sp, #0
 1162              		.cfi_offset 7, -4
 1163              	.LCFI53:
 1164              		.cfi_def_cfa_register 7
 1165 0006 0346     		mov	r3, r0
 1166 0008 FB71     		strb	r3, [r7, #7]
1006:.\Generated_Source\PSoC5/UART.c ****         /* If not Initialized then skip this function*/
1007:.\Generated_Source\PSoC5/UART.c ****         if(UART_initVar != 0u)
 1167              		.loc 1 1007 0
 1168 000a 40F20003 		movw	r3, #:lower16:UART_initVar
 1169 000e C0F20003 		movt	r3, #:upper16:UART_initVar
 1170 0012 1B78     		ldrb	r3, [r3, #0]	@ zero_extendqisi2
 1171 0014 002B     		cmp	r3, #0
 1172 0016 05D0     		beq	.L60
1008:.\Generated_Source\PSoC5/UART.c ****         {
1009:.\Generated_Source\PSoC5/UART.c ****             #if(UART_TXBUFFERSIZE > UART_FIFO_LENGTH)
1010:.\Generated_Source\PSoC5/UART.c **** 
1011:.\Generated_Source\PSoC5/UART.c ****                 /* Disable Tx interrupt. */
1012:.\Generated_Source\PSoC5/UART.c ****                 /* Protect variables that could change on interrupt. */
1013:.\Generated_Source\PSoC5/UART.c ****                 #if(UART_TX_INTERRUPT_ENABLED)
1014:.\Generated_Source\PSoC5/UART.c ****                     UART_DisableTxInt();
1015:.\Generated_Source\PSoC5/UART.c ****                 #endif /* End UART_TX_INTERRUPT_ENABLED */
1016:.\Generated_Source\PSoC5/UART.c **** 
1017:.\Generated_Source\PSoC5/UART.c ****                 if( (UART_txBufferRead == UART_txBufferWrite) &&
1018:.\Generated_Source\PSoC5/UART.c ****                    !(UART_TXSTATUS_REG & UART_TX_STS_FIFO_FULL) )
1019:.\Generated_Source\PSoC5/UART.c ****                 {
1020:.\Generated_Source\PSoC5/UART.c ****                     /* Add directly to the FIFO. */
1021:.\Generated_Source\PSoC5/UART.c ****                     UART_TXDATA_REG = txDataByte;
1022:.\Generated_Source\PSoC5/UART.c ****                 }
1023:.\Generated_Source\PSoC5/UART.c ****                 else
1024:.\Generated_Source\PSoC5/UART.c ****                 {
1025:.\Generated_Source\PSoC5/UART.c ****                     if(UART_txBufferWrite >= UART_TXBUFFERSIZE)
1026:.\Generated_Source\PSoC5/UART.c ****                     {
1027:.\Generated_Source\PSoC5/UART.c ****                         UART_txBufferWrite = 0;
1028:.\Generated_Source\PSoC5/UART.c ****                     }
1029:.\Generated_Source\PSoC5/UART.c **** 
1030:.\Generated_Source\PSoC5/UART.c ****                     UART_txBuffer[UART_txBufferWrite] = txDataByte;
1031:.\Generated_Source\PSoC5/UART.c **** 
1032:.\Generated_Source\PSoC5/UART.c ****                     /* Add to the software buffer. */
1033:.\Generated_Source\PSoC5/UART.c ****                     UART_txBufferWrite++;
1034:.\Generated_Source\PSoC5/UART.c **** 
1035:.\Generated_Source\PSoC5/UART.c ****                 }
1036:.\Generated_Source\PSoC5/UART.c **** 
1037:.\Generated_Source\PSoC5/UART.c ****                 /* Enable Tx interrupt. */
1038:.\Generated_Source\PSoC5/UART.c ****                 #if(UART_TX_INTERRUPT_ENABLED)
1039:.\Generated_Source\PSoC5/UART.c ****                     UART_EnableTxInt();
1040:.\Generated_Source\PSoC5/UART.c ****                 #endif /* End UART_TX_INTERRUPT_ENABLED */
1041:.\Generated_Source\PSoC5/UART.c **** 
1042:.\Generated_Source\PSoC5/UART.c ****             #else /* UART_TXBUFFERSIZE > UART_FIFO_LENGTH */
1043:.\Generated_Source\PSoC5/UART.c **** 
1044:.\Generated_Source\PSoC5/UART.c ****                 /* Add directly to the FIFO. */
1045:.\Generated_Source\PSoC5/UART.c ****                 UART_TXDATA_REG = txDataByte;
 1173              		.loc 1 1045 0
 1174 0018 46F24243 		movw	r3, #:lower16:1073767490
ARM GAS  C:\Users\dwguo\AppData\Local\Temp\cceIZtOF.s 			page 40


 1175 001c C4F20003 		movt	r3, #:upper16:1073767490
 1176 0020 FA79     		ldrb	r2, [r7, #7]
 1177 0022 1A70     		strb	r2, [r3, #0]
 1178              	.L60:
1046:.\Generated_Source\PSoC5/UART.c **** 
1047:.\Generated_Source\PSoC5/UART.c ****             #endif /* End UART_TXBUFFERSIZE > UART_FIFO_LENGTH */
1048:.\Generated_Source\PSoC5/UART.c ****         }
1049:.\Generated_Source\PSoC5/UART.c ****     }
 1179              		.loc 1 1049 0
 1180 0024 07F10C07 		add	r7, r7, #12
 1181 0028 BD46     		mov	sp, r7
 1182 002a 80BC     		pop	{r7}
 1183 002c 7047     		bx	lr
 1184              		.cfi_endproc
 1185              	.LFE19:
 1186              		.size	UART_WriteTxData, .-UART_WriteTxData
 1187 002e 00BF     		.section	.text.UART_ReadTxStatus,"ax",%progbits
 1188              		.align	2
 1189              		.global	UART_ReadTxStatus
 1190              		.thumb
 1191              		.thumb_func
 1192              		.type	UART_ReadTxStatus, %function
 1193              	UART_ReadTxStatus:
 1194              	.LFB20:
1050:.\Generated_Source\PSoC5/UART.c **** 
1051:.\Generated_Source\PSoC5/UART.c **** 
1052:.\Generated_Source\PSoC5/UART.c ****     /*******************************************************************************
1053:.\Generated_Source\PSoC5/UART.c ****     * Function Name: UART_ReadTxStatus
1054:.\Generated_Source\PSoC5/UART.c ****     ********************************************************************************
1055:.\Generated_Source\PSoC5/UART.c ****     *
1056:.\Generated_Source\PSoC5/UART.c ****     * Summary:
1057:.\Generated_Source\PSoC5/UART.c ****     *  Read the status register for the component
1058:.\Generated_Source\PSoC5/UART.c ****     *
1059:.\Generated_Source\PSoC5/UART.c ****     * Parameters:
1060:.\Generated_Source\PSoC5/UART.c ****     *  None.
1061:.\Generated_Source\PSoC5/UART.c ****     *
1062:.\Generated_Source\PSoC5/UART.c ****     * Return:
1063:.\Generated_Source\PSoC5/UART.c ****     *  Contents of the status register
1064:.\Generated_Source\PSoC5/UART.c ****     *
1065:.\Generated_Source\PSoC5/UART.c ****     * Theory:
1066:.\Generated_Source\PSoC5/UART.c ****     *  This function reads the status register which is clear on read. It is up to 
1067:.\Generated_Source\PSoC5/UART.c ****     *  the user to handle all bits in this return value accordingly, even if the bit 
1068:.\Generated_Source\PSoC5/UART.c ****     *  was not enabled as an interrupt source the event happened and must be handled
1069:.\Generated_Source\PSoC5/UART.c ****     *  accordingly.    
1070:.\Generated_Source\PSoC5/UART.c ****     *
1071:.\Generated_Source\PSoC5/UART.c ****     *******************************************************************************/
1072:.\Generated_Source\PSoC5/UART.c ****     uint8 UART_ReadTxStatus(void) 
1073:.\Generated_Source\PSoC5/UART.c ****     {
 1195              		.loc 1 1073 0
 1196              		.cfi_startproc
 1197              		@ args = 0, pretend = 0, frame = 0
 1198              		@ frame_needed = 1, uses_anonymous_args = 0
 1199              		@ link register save eliminated.
 1200 0000 80B4     		push	{r7}
 1201              	.LCFI54:
 1202              		.cfi_def_cfa_offset 4
 1203 0002 00AF     		add	r7, sp, #0
ARM GAS  C:\Users\dwguo\AppData\Local\Temp\cceIZtOF.s 			page 41


 1204              		.cfi_offset 7, -4
 1205              	.LCFI55:
 1206              		.cfi_def_cfa_register 7
1074:.\Generated_Source\PSoC5/UART.c ****         return(UART_TXSTATUS_REG);
 1207              		.loc 1 1074 0
 1208 0004 46F26243 		movw	r3, #:lower16:1073767522
 1209 0008 C4F20003 		movt	r3, #:upper16:1073767522
 1210 000c 1B78     		ldrb	r3, [r3, #0]
 1211 000e DBB2     		uxtb	r3, r3
1075:.\Generated_Source\PSoC5/UART.c ****     }
 1212              		.loc 1 1075 0
 1213 0010 1846     		mov	r0, r3
 1214 0012 BD46     		mov	sp, r7
 1215 0014 80BC     		pop	{r7}
 1216 0016 7047     		bx	lr
 1217              		.cfi_endproc
 1218              	.LFE20:
 1219              		.size	UART_ReadTxStatus, .-UART_ReadTxStatus
 1220              		.section	.text.UART_PutChar,"ax",%progbits
 1221              		.align	2
 1222              		.global	UART_PutChar
 1223              		.thumb
 1224              		.thumb_func
 1225              		.type	UART_PutChar, %function
 1226              	UART_PutChar:
 1227              	.LFB21:
1076:.\Generated_Source\PSoC5/UART.c **** 
1077:.\Generated_Source\PSoC5/UART.c **** 
1078:.\Generated_Source\PSoC5/UART.c ****     /*******************************************************************************
1079:.\Generated_Source\PSoC5/UART.c ****     * Function Name: UART_PutChar
1080:.\Generated_Source\PSoC5/UART.c ****     ********************************************************************************
1081:.\Generated_Source\PSoC5/UART.c ****     *
1082:.\Generated_Source\PSoC5/UART.c ****     * Summary:
1083:.\Generated_Source\PSoC5/UART.c ****     *  Wait to send byte until TX register or buffer has room.
1084:.\Generated_Source\PSoC5/UART.c ****     *
1085:.\Generated_Source\PSoC5/UART.c ****     * Parameters:
1086:.\Generated_Source\PSoC5/UART.c ****     *  txDataByte: The 8-bit data value to send across the UART.
1087:.\Generated_Source\PSoC5/UART.c ****     *
1088:.\Generated_Source\PSoC5/UART.c ****     * Return:
1089:.\Generated_Source\PSoC5/UART.c ****     *  None.
1090:.\Generated_Source\PSoC5/UART.c ****     *
1091:.\Generated_Source\PSoC5/UART.c ****     * Global Variables:
1092:.\Generated_Source\PSoC5/UART.c ****     *  UART_txBuffer - RAM buffer pointer for save data for transmission
1093:.\Generated_Source\PSoC5/UART.c ****     *  UART_txBufferWrite - cyclic index for write to txBuffer, 
1094:.\Generated_Source\PSoC5/UART.c ****     *     checked to identify free space in txBuffer and incremented after each byte 
1095:.\Generated_Source\PSoC5/UART.c ****     *     saved to buffer.
1096:.\Generated_Source\PSoC5/UART.c ****     *  UART_txBufferRead - cyclic index for read from txBuffer, 
1097:.\Generated_Source\PSoC5/UART.c ****     *     checked to identify free space in txBuffer.
1098:.\Generated_Source\PSoC5/UART.c ****     *  UART_initVar - checked to identify that the component has been  
1099:.\Generated_Source\PSoC5/UART.c ****     *     initialized.
1100:.\Generated_Source\PSoC5/UART.c ****     *
1101:.\Generated_Source\PSoC5/UART.c ****     * Reentrant:
1102:.\Generated_Source\PSoC5/UART.c ****     *  No.
1103:.\Generated_Source\PSoC5/UART.c ****     *
1104:.\Generated_Source\PSoC5/UART.c ****     * Theory:
1105:.\Generated_Source\PSoC5/UART.c ****     *  Allows the user to transmit any byte of data in a single transfer
1106:.\Generated_Source\PSoC5/UART.c ****     *
ARM GAS  C:\Users\dwguo\AppData\Local\Temp\cceIZtOF.s 			page 42


1107:.\Generated_Source\PSoC5/UART.c ****     *******************************************************************************/
1108:.\Generated_Source\PSoC5/UART.c ****     void UART_PutChar(uint8 txDataByte) 
1109:.\Generated_Source\PSoC5/UART.c ****     {
 1228              		.loc 1 1109 0
 1229              		.cfi_startproc
 1230              		@ args = 0, pretend = 0, frame = 8
 1231              		@ frame_needed = 1, uses_anonymous_args = 0
 1232              		@ link register save eliminated.
 1233 0000 80B4     		push	{r7}
 1234              	.LCFI56:
 1235              		.cfi_def_cfa_offset 4
 1236 0002 83B0     		sub	sp, sp, #12
 1237              	.LCFI57:
 1238              		.cfi_def_cfa_offset 16
 1239 0004 00AF     		add	r7, sp, #0
 1240              		.cfi_offset 7, -4
 1241              	.LCFI58:
 1242              		.cfi_def_cfa_register 7
 1243 0006 0346     		mov	r3, r0
 1244 0008 FB71     		strb	r3, [r7, #7]
 1245              	.L64:
1110:.\Generated_Source\PSoC5/UART.c ****             #if(UART_TXBUFFERSIZE > UART_FIFO_LENGTH)
1111:.\Generated_Source\PSoC5/UART.c **** 
1112:.\Generated_Source\PSoC5/UART.c ****                 /* Block if buffer is full, so we dont overwrite. */
1113:.\Generated_Source\PSoC5/UART.c ****                 while( UART_txBufferWrite == (UART_txBufferRead - 1u) ||
1114:.\Generated_Source\PSoC5/UART.c ****                     (uint8)(UART_txBufferWrite - UART_txBufferRead) ==
1115:.\Generated_Source\PSoC5/UART.c ****                     (uint8)(UART_TXBUFFERSIZE - 1u) )
1116:.\Generated_Source\PSoC5/UART.c ****                 {
1117:.\Generated_Source\PSoC5/UART.c ****                     /* Software buffer is full. */
1118:.\Generated_Source\PSoC5/UART.c ****                 }
1119:.\Generated_Source\PSoC5/UART.c ****                 /* Disable Tx interrupt. */
1120:.\Generated_Source\PSoC5/UART.c ****                 /* Protect variables that could change on interrupt. */
1121:.\Generated_Source\PSoC5/UART.c ****                 #if(UART_TX_INTERRUPT_ENABLED)
1122:.\Generated_Source\PSoC5/UART.c ****                     UART_DisableTxInt();
1123:.\Generated_Source\PSoC5/UART.c ****                 #endif /* End UART_TX_INTERRUPT_ENABLED */
1124:.\Generated_Source\PSoC5/UART.c **** 
1125:.\Generated_Source\PSoC5/UART.c ****                 if( (UART_txBufferRead == UART_txBufferWrite) &&
1126:.\Generated_Source\PSoC5/UART.c ****                    !(UART_TXSTATUS_REG & UART_TX_STS_FIFO_FULL) )
1127:.\Generated_Source\PSoC5/UART.c ****                 {
1128:.\Generated_Source\PSoC5/UART.c ****                     /* Add directly to the FIFO. */
1129:.\Generated_Source\PSoC5/UART.c ****                     UART_TXDATA_REG = txDataByte;
1130:.\Generated_Source\PSoC5/UART.c ****                 }
1131:.\Generated_Source\PSoC5/UART.c ****                 else
1132:.\Generated_Source\PSoC5/UART.c ****                 {
1133:.\Generated_Source\PSoC5/UART.c ****                     if(UART_txBufferWrite >= UART_TXBUFFERSIZE)
1134:.\Generated_Source\PSoC5/UART.c ****                     {
1135:.\Generated_Source\PSoC5/UART.c ****                         UART_txBufferWrite = 0;
1136:.\Generated_Source\PSoC5/UART.c ****                     }
1137:.\Generated_Source\PSoC5/UART.c **** 
1138:.\Generated_Source\PSoC5/UART.c ****                     UART_txBuffer[UART_txBufferWrite] = txDataByte;
1139:.\Generated_Source\PSoC5/UART.c **** 
1140:.\Generated_Source\PSoC5/UART.c ****                     /* Add to the software buffer. */
1141:.\Generated_Source\PSoC5/UART.c ****                     UART_txBufferWrite++;
1142:.\Generated_Source\PSoC5/UART.c **** 
1143:.\Generated_Source\PSoC5/UART.c ****                 }
1144:.\Generated_Source\PSoC5/UART.c **** 
1145:.\Generated_Source\PSoC5/UART.c ****                 /* Enable Rx interrupt. */
ARM GAS  C:\Users\dwguo\AppData\Local\Temp\cceIZtOF.s 			page 43


1146:.\Generated_Source\PSoC5/UART.c ****                 #if(UART_TX_INTERRUPT_ENABLED)
1147:.\Generated_Source\PSoC5/UART.c ****                     UART_EnableTxInt();
1148:.\Generated_Source\PSoC5/UART.c ****                 #endif /* End UART_TX_INTERRUPT_ENABLED */
1149:.\Generated_Source\PSoC5/UART.c **** 
1150:.\Generated_Source\PSoC5/UART.c ****             #else /* UART_TXBUFFERSIZE > UART_FIFO_LENGTH */
1151:.\Generated_Source\PSoC5/UART.c **** 
1152:.\Generated_Source\PSoC5/UART.c ****                 /* Block if there isnt room. */
1153:.\Generated_Source\PSoC5/UART.c ****                 while(UART_TXSTATUS_REG & UART_TX_STS_FIFO_FULL);
 1246              		.loc 1 1153 0
 1247 000a 46F26243 		movw	r3, #:lower16:1073767522
 1248 000e C4F20003 		movt	r3, #:upper16:1073767522
 1249 0012 1B78     		ldrb	r3, [r3, #0]
 1250 0014 DBB2     		uxtb	r3, r3
 1251 0016 03F00403 		and	r3, r3, #4
 1252 001a 002B     		cmp	r3, #0
 1253 001c F5D1     		bne	.L64
1154:.\Generated_Source\PSoC5/UART.c **** 
1155:.\Generated_Source\PSoC5/UART.c ****                 /* Add directly to the FIFO. */
1156:.\Generated_Source\PSoC5/UART.c ****                 UART_TXDATA_REG = txDataByte;
 1254              		.loc 1 1156 0
 1255 001e 46F24243 		movw	r3, #:lower16:1073767490
 1256 0022 C4F20003 		movt	r3, #:upper16:1073767490
 1257 0026 FA79     		ldrb	r2, [r7, #7]
 1258 0028 1A70     		strb	r2, [r3, #0]
1157:.\Generated_Source\PSoC5/UART.c **** 
1158:.\Generated_Source\PSoC5/UART.c ****             #endif /* End UART_TXBUFFERSIZE > UART_FIFO_LENGTH */
1159:.\Generated_Source\PSoC5/UART.c ****     }
 1259              		.loc 1 1159 0
 1260 002a 07F10C07 		add	r7, r7, #12
 1261 002e BD46     		mov	sp, r7
 1262 0030 80BC     		pop	{r7}
 1263 0032 7047     		bx	lr
 1264              		.cfi_endproc
 1265              	.LFE21:
 1266              		.size	UART_PutChar, .-UART_PutChar
 1267              		.section	.text.UART_PutString,"ax",%progbits
 1268              		.align	2
 1269              		.global	UART_PutString
 1270              		.thumb
 1271              		.thumb_func
 1272              		.type	UART_PutString, %function
 1273              	UART_PutString:
 1274              	.LFB22:
1160:.\Generated_Source\PSoC5/UART.c **** 
1161:.\Generated_Source\PSoC5/UART.c **** 
1162:.\Generated_Source\PSoC5/UART.c ****     /*******************************************************************************
1163:.\Generated_Source\PSoC5/UART.c ****     * Function Name: UART_PutString
1164:.\Generated_Source\PSoC5/UART.c ****     ********************************************************************************
1165:.\Generated_Source\PSoC5/UART.c ****     *
1166:.\Generated_Source\PSoC5/UART.c ****     * Summary:
1167:.\Generated_Source\PSoC5/UART.c ****     *  Write a Sequence of bytes on the Transmit line. Data comes from RAM or ROM.
1168:.\Generated_Source\PSoC5/UART.c ****     *
1169:.\Generated_Source\PSoC5/UART.c ****     * Parameters:
1170:.\Generated_Source\PSoC5/UART.c ****     *  string: char pointer to character string of Data to Send.
1171:.\Generated_Source\PSoC5/UART.c ****     *
1172:.\Generated_Source\PSoC5/UART.c ****     * Return:
1173:.\Generated_Source\PSoC5/UART.c ****     *  None.
ARM GAS  C:\Users\dwguo\AppData\Local\Temp\cceIZtOF.s 			page 44


1174:.\Generated_Source\PSoC5/UART.c ****     *
1175:.\Generated_Source\PSoC5/UART.c ****     * Global Variables:
1176:.\Generated_Source\PSoC5/UART.c ****     *  UART_initVar - checked to identify that the component has been  
1177:.\Generated_Source\PSoC5/UART.c ****     *     initialized.
1178:.\Generated_Source\PSoC5/UART.c ****     *
1179:.\Generated_Source\PSoC5/UART.c ****     * Reentrant:
1180:.\Generated_Source\PSoC5/UART.c ****     *  No.
1181:.\Generated_Source\PSoC5/UART.c ****     *
1182:.\Generated_Source\PSoC5/UART.c ****     * Theory:
1183:.\Generated_Source\PSoC5/UART.c ****     *  This function will block if there is not enough memory to place the whole 
1184:.\Generated_Source\PSoC5/UART.c ****     *  string, it will block until the entire string has been written to the 
1185:.\Generated_Source\PSoC5/UART.c ****     *  transmit buffer.
1186:.\Generated_Source\PSoC5/UART.c ****     *
1187:.\Generated_Source\PSoC5/UART.c ****     *******************************************************************************/
1188:.\Generated_Source\PSoC5/UART.c ****     void UART_PutString(char* string) 
1189:.\Generated_Source\PSoC5/UART.c ****     {
 1275              		.loc 1 1189 0
 1276              		.cfi_startproc
 1277              		@ args = 0, pretend = 0, frame = 8
 1278              		@ frame_needed = 1, uses_anonymous_args = 0
 1279 0000 80B5     		push	{r7, lr}
 1280              	.LCFI59:
 1281              		.cfi_def_cfa_offset 8
 1282 0002 82B0     		sub	sp, sp, #8
 1283              	.LCFI60:
 1284              		.cfi_def_cfa_offset 16
 1285 0004 00AF     		add	r7, sp, #0
 1286              		.cfi_offset 14, -4
 1287              		.cfi_offset 7, -8
 1288              	.LCFI61:
 1289              		.cfi_def_cfa_register 7
 1290 0006 7860     		str	r0, [r7, #4]
1190:.\Generated_Source\PSoC5/UART.c ****         /* If not Initialized then skip this function*/
1191:.\Generated_Source\PSoC5/UART.c ****         if(UART_initVar != 0u)
 1291              		.loc 1 1191 0
 1292 0008 40F20003 		movw	r3, #:lower16:UART_initVar
 1293 000c C0F20003 		movt	r3, #:upper16:UART_initVar
 1294 0010 1B78     		ldrb	r3, [r3, #0]	@ zero_extendqisi2
 1295 0012 002B     		cmp	r3, #0
 1296 0014 0DD0     		beq	.L70
1192:.\Generated_Source\PSoC5/UART.c ****         {
1193:.\Generated_Source\PSoC5/UART.c ****             /* This is a blocking function, it will not exit until all data is sent*/
1194:.\Generated_Source\PSoC5/UART.c ****             while(*string != 0u)
 1297              		.loc 1 1194 0
 1298 0016 08E0     		b	.L68
 1299              	.L69:
1195:.\Generated_Source\PSoC5/UART.c ****             {
1196:.\Generated_Source\PSoC5/UART.c ****                 UART_PutChar(*string++);
 1300              		.loc 1 1196 0
 1301 0018 7B68     		ldr	r3, [r7, #4]
 1302 001a 1B78     		ldrb	r3, [r3, #0]	@ zero_extendqisi2
 1303 001c 7A68     		ldr	r2, [r7, #4]
 1304 001e 02F10102 		add	r2, r2, #1
 1305 0022 7A60     		str	r2, [r7, #4]
 1306 0024 1846     		mov	r0, r3
 1307 0026 FFF7FEFF 		bl	UART_PutChar
 1308              	.L68:
ARM GAS  C:\Users\dwguo\AppData\Local\Temp\cceIZtOF.s 			page 45


 1309              		.loc 1 1194 0
 1310 002a 7B68     		ldr	r3, [r7, #4]
 1311 002c 1B78     		ldrb	r3, [r3, #0]	@ zero_extendqisi2
 1312 002e 002B     		cmp	r3, #0
 1313 0030 F2D1     		bne	.L69
 1314              	.L70:
1197:.\Generated_Source\PSoC5/UART.c ****             }
1198:.\Generated_Source\PSoC5/UART.c ****         }
1199:.\Generated_Source\PSoC5/UART.c ****     }
 1315              		.loc 1 1199 0
 1316 0032 07F10807 		add	r7, r7, #8
 1317 0036 BD46     		mov	sp, r7
 1318 0038 80BD     		pop	{r7, pc}
 1319              		.cfi_endproc
 1320              	.LFE22:
 1321              		.size	UART_PutString, .-UART_PutString
 1322 003a 00BF     		.section	.text.UART_PutArray,"ax",%progbits
 1323              		.align	2
 1324              		.global	UART_PutArray
 1325              		.thumb
 1326              		.thumb_func
 1327              		.type	UART_PutArray, %function
 1328              	UART_PutArray:
 1329              	.LFB23:
1200:.\Generated_Source\PSoC5/UART.c **** 
1201:.\Generated_Source\PSoC5/UART.c **** 
1202:.\Generated_Source\PSoC5/UART.c ****     /*******************************************************************************
1203:.\Generated_Source\PSoC5/UART.c ****     * Function Name: UART_PutArray
1204:.\Generated_Source\PSoC5/UART.c ****     ********************************************************************************
1205:.\Generated_Source\PSoC5/UART.c ****     *
1206:.\Generated_Source\PSoC5/UART.c ****     * Summary:
1207:.\Generated_Source\PSoC5/UART.c ****     *  Write a Sequence of bytes on the Transmit line. Data comes from RAM or ROM.
1208:.\Generated_Source\PSoC5/UART.c ****     *
1209:.\Generated_Source\PSoC5/UART.c ****     * Parameters:
1210:.\Generated_Source\PSoC5/UART.c ****     *  string: Address of the memory array residing in RAM or ROM.
1211:.\Generated_Source\PSoC5/UART.c ****     *  byteCount: Number of Bytes to be transmitted.
1212:.\Generated_Source\PSoC5/UART.c ****     *
1213:.\Generated_Source\PSoC5/UART.c ****     * Return:
1214:.\Generated_Source\PSoC5/UART.c ****     *  None.
1215:.\Generated_Source\PSoC5/UART.c ****     *
1216:.\Generated_Source\PSoC5/UART.c ****     * Global Variables:
1217:.\Generated_Source\PSoC5/UART.c ****     *  UART_initVar - checked to identify that the component has been  
1218:.\Generated_Source\PSoC5/UART.c ****     *     initialized.
1219:.\Generated_Source\PSoC5/UART.c ****     *
1220:.\Generated_Source\PSoC5/UART.c ****     * Reentrant:
1221:.\Generated_Source\PSoC5/UART.c ****     *  No.
1222:.\Generated_Source\PSoC5/UART.c ****     *
1223:.\Generated_Source\PSoC5/UART.c ****     *******************************************************************************/
1224:.\Generated_Source\PSoC5/UART.c ****     void UART_PutArray(uint8* string, uint8 byteCount) 
1225:.\Generated_Source\PSoC5/UART.c ****                                                                     
1226:.\Generated_Source\PSoC5/UART.c ****     {
 1330              		.loc 1 1226 0
 1331              		.cfi_startproc
 1332              		@ args = 0, pretend = 0, frame = 8
 1333              		@ frame_needed = 1, uses_anonymous_args = 0
 1334 0000 80B5     		push	{r7, lr}
 1335              	.LCFI62:
ARM GAS  C:\Users\dwguo\AppData\Local\Temp\cceIZtOF.s 			page 46


 1336              		.cfi_def_cfa_offset 8
 1337 0002 82B0     		sub	sp, sp, #8
 1338              	.LCFI63:
 1339              		.cfi_def_cfa_offset 16
 1340 0004 00AF     		add	r7, sp, #0
 1341              		.cfi_offset 14, -4
 1342              		.cfi_offset 7, -8
 1343              	.LCFI64:
 1344              		.cfi_def_cfa_register 7
 1345 0006 7860     		str	r0, [r7, #4]
 1346 0008 0B46     		mov	r3, r1
 1347 000a FB70     		strb	r3, [r7, #3]
1227:.\Generated_Source\PSoC5/UART.c ****         /* If not Initialized then skip this function*/
1228:.\Generated_Source\PSoC5/UART.c ****         if(UART_initVar != 0u)
 1348              		.loc 1 1228 0
 1349 000c 40F20003 		movw	r3, #:lower16:UART_initVar
 1350 0010 C0F20003 		movt	r3, #:upper16:UART_initVar
 1351 0014 1B78     		ldrb	r3, [r3, #0]	@ zero_extendqisi2
 1352 0016 002B     		cmp	r3, #0
 1353 0018 10D0     		beq	.L75
1229:.\Generated_Source\PSoC5/UART.c ****         {
1230:.\Generated_Source\PSoC5/UART.c ****             while(byteCount > 0u)
 1354              		.loc 1 1230 0
 1355 001a 0CE0     		b	.L73
 1356              	.L74:
1231:.\Generated_Source\PSoC5/UART.c ****             {
1232:.\Generated_Source\PSoC5/UART.c ****                 UART_PutChar(*string++);
 1357              		.loc 1 1232 0
 1358 001c 7B68     		ldr	r3, [r7, #4]
 1359 001e 1B78     		ldrb	r3, [r3, #0]	@ zero_extendqisi2
 1360 0020 7A68     		ldr	r2, [r7, #4]
 1361 0022 02F10102 		add	r2, r2, #1
 1362 0026 7A60     		str	r2, [r7, #4]
 1363 0028 1846     		mov	r0, r3
 1364 002a FFF7FEFF 		bl	UART_PutChar
1233:.\Generated_Source\PSoC5/UART.c ****                 byteCount--;
 1365              		.loc 1 1233 0
 1366 002e FB78     		ldrb	r3, [r7, #3]
 1367 0030 03F1FF33 		add	r3, r3, #-1
 1368 0034 FB70     		strb	r3, [r7, #3]
 1369              	.L73:
 1370              		.loc 1 1230 0
 1371 0036 FB78     		ldrb	r3, [r7, #3]	@ zero_extendqisi2
 1372 0038 002B     		cmp	r3, #0
 1373 003a EFD1     		bne	.L74
 1374              	.L75:
1234:.\Generated_Source\PSoC5/UART.c ****             }
1235:.\Generated_Source\PSoC5/UART.c ****         }
1236:.\Generated_Source\PSoC5/UART.c ****     }
 1375              		.loc 1 1236 0
 1376 003c 07F10807 		add	r7, r7, #8
 1377 0040 BD46     		mov	sp, r7
 1378 0042 80BD     		pop	{r7, pc}
 1379              		.cfi_endproc
 1380              	.LFE23:
 1381              		.size	UART_PutArray, .-UART_PutArray
 1382              		.section	.text.UART_PutCRLF,"ax",%progbits
ARM GAS  C:\Users\dwguo\AppData\Local\Temp\cceIZtOF.s 			page 47


 1383              		.align	2
 1384              		.global	UART_PutCRLF
 1385              		.thumb
 1386              		.thumb_func
 1387              		.type	UART_PutCRLF, %function
 1388              	UART_PutCRLF:
 1389              	.LFB24:
1237:.\Generated_Source\PSoC5/UART.c **** 
1238:.\Generated_Source\PSoC5/UART.c **** 
1239:.\Generated_Source\PSoC5/UART.c ****     /*******************************************************************************
1240:.\Generated_Source\PSoC5/UART.c ****     * Function Name: UART_PutCRLF
1241:.\Generated_Source\PSoC5/UART.c ****     ********************************************************************************
1242:.\Generated_Source\PSoC5/UART.c ****     *
1243:.\Generated_Source\PSoC5/UART.c ****     * Summary:
1244:.\Generated_Source\PSoC5/UART.c ****     *  Write a character and then carriage return and line feed.
1245:.\Generated_Source\PSoC5/UART.c ****     *
1246:.\Generated_Source\PSoC5/UART.c ****     * Parameters:
1247:.\Generated_Source\PSoC5/UART.c ****     *  txDataByte: uint8 Character to send.
1248:.\Generated_Source\PSoC5/UART.c ****     *
1249:.\Generated_Source\PSoC5/UART.c ****     * Return:
1250:.\Generated_Source\PSoC5/UART.c ****     *  None.
1251:.\Generated_Source\PSoC5/UART.c ****     *
1252:.\Generated_Source\PSoC5/UART.c ****     * Global Variables:
1253:.\Generated_Source\PSoC5/UART.c ****     *  UART_initVar - checked to identify that the component has been  
1254:.\Generated_Source\PSoC5/UART.c ****     *     initialized.
1255:.\Generated_Source\PSoC5/UART.c ****     *
1256:.\Generated_Source\PSoC5/UART.c ****     * Reentrant:
1257:.\Generated_Source\PSoC5/UART.c ****     *  No.
1258:.\Generated_Source\PSoC5/UART.c ****     *
1259:.\Generated_Source\PSoC5/UART.c ****     *******************************************************************************/
1260:.\Generated_Source\PSoC5/UART.c ****     void UART_PutCRLF(uint8 txDataByte) 
1261:.\Generated_Source\PSoC5/UART.c ****     {
 1390              		.loc 1 1261 0
 1391              		.cfi_startproc
 1392              		@ args = 0, pretend = 0, frame = 8
 1393              		@ frame_needed = 1, uses_anonymous_args = 0
 1394 0000 80B5     		push	{r7, lr}
 1395              	.LCFI65:
 1396              		.cfi_def_cfa_offset 8
 1397 0002 82B0     		sub	sp, sp, #8
 1398              	.LCFI66:
 1399              		.cfi_def_cfa_offset 16
 1400 0004 00AF     		add	r7, sp, #0
 1401              		.cfi_offset 14, -4
 1402              		.cfi_offset 7, -8
 1403              	.LCFI67:
 1404              		.cfi_def_cfa_register 7
 1405 0006 0346     		mov	r3, r0
 1406 0008 FB71     		strb	r3, [r7, #7]
1262:.\Generated_Source\PSoC5/UART.c ****         /* If not Initialized then skip this function*/
1263:.\Generated_Source\PSoC5/UART.c ****         if(UART_initVar != 0u)
 1407              		.loc 1 1263 0
 1408 000a 40F20003 		movw	r3, #:lower16:UART_initVar
 1409 000e C0F20003 		movt	r3, #:upper16:UART_initVar
 1410 0012 1B78     		ldrb	r3, [r3, #0]	@ zero_extendqisi2
 1411 0014 002B     		cmp	r3, #0
 1412 0016 0BD0     		beq	.L78
ARM GAS  C:\Users\dwguo\AppData\Local\Temp\cceIZtOF.s 			page 48


1264:.\Generated_Source\PSoC5/UART.c ****         {
1265:.\Generated_Source\PSoC5/UART.c ****             UART_PutChar(txDataByte);
 1413              		.loc 1 1265 0
 1414 0018 FB79     		ldrb	r3, [r7, #7]	@ zero_extendqisi2
 1415 001a 1846     		mov	r0, r3
 1416 001c FFF7FEFF 		bl	UART_PutChar
1266:.\Generated_Source\PSoC5/UART.c ****             UART_PutChar(0x0Du);
 1417              		.loc 1 1266 0
 1418 0020 4FF00D00 		mov	r0, #13
 1419 0024 FFF7FEFF 		bl	UART_PutChar
1267:.\Generated_Source\PSoC5/UART.c ****             UART_PutChar(0x0Au);
 1420              		.loc 1 1267 0
 1421 0028 4FF00A00 		mov	r0, #10
 1422 002c FFF7FEFF 		bl	UART_PutChar
 1423              	.L78:
1268:.\Generated_Source\PSoC5/UART.c ****         }
1269:.\Generated_Source\PSoC5/UART.c ****     }
 1424              		.loc 1 1269 0
 1425 0030 07F10807 		add	r7, r7, #8
 1426 0034 BD46     		mov	sp, r7
 1427 0036 80BD     		pop	{r7, pc}
 1428              		.cfi_endproc
 1429              	.LFE24:
 1430              		.size	UART_PutCRLF, .-UART_PutCRLF
 1431              		.section	.text.UART_GetTxBufferSize,"ax",%progbits
 1432              		.align	2
 1433              		.global	UART_GetTxBufferSize
 1434              		.thumb
 1435              		.thumb_func
 1436              		.type	UART_GetTxBufferSize, %function
 1437              	UART_GetTxBufferSize:
 1438              	.LFB25:
1270:.\Generated_Source\PSoC5/UART.c **** 
1271:.\Generated_Source\PSoC5/UART.c **** 
1272:.\Generated_Source\PSoC5/UART.c ****     /*******************************************************************************
1273:.\Generated_Source\PSoC5/UART.c ****     * Function Name: UART_GetTxBufferSize
1274:.\Generated_Source\PSoC5/UART.c ****     ********************************************************************************
1275:.\Generated_Source\PSoC5/UART.c ****     *
1276:.\Generated_Source\PSoC5/UART.c ****     * Summary:
1277:.\Generated_Source\PSoC5/UART.c ****     *  Determine the amount of space left in the TX buffer and return the count in
1278:.\Generated_Source\PSoC5/UART.c ****     *  bytes
1279:.\Generated_Source\PSoC5/UART.c ****     *
1280:.\Generated_Source\PSoC5/UART.c ****     * Parameters:
1281:.\Generated_Source\PSoC5/UART.c ****     *  None.
1282:.\Generated_Source\PSoC5/UART.c ****     *
1283:.\Generated_Source\PSoC5/UART.c ****     * Return:
1284:.\Generated_Source\PSoC5/UART.c ****     *  Integer count of the number of bytes left in the TX buffer
1285:.\Generated_Source\PSoC5/UART.c ****     *
1286:.\Generated_Source\PSoC5/UART.c ****     * Global Variables:
1287:.\Generated_Source\PSoC5/UART.c ****     *  UART_txBufferWrite - used to calculate left space. 
1288:.\Generated_Source\PSoC5/UART.c ****     *  UART_txBufferRead - used to calculate left space.
1289:.\Generated_Source\PSoC5/UART.c ****     *
1290:.\Generated_Source\PSoC5/UART.c ****     * Reentrant:
1291:.\Generated_Source\PSoC5/UART.c ****     *  No.
1292:.\Generated_Source\PSoC5/UART.c ****     *
1293:.\Generated_Source\PSoC5/UART.c ****     * Theory:
1294:.\Generated_Source\PSoC5/UART.c ****     *  Allows the user to find out how full the TX Buffer is.
ARM GAS  C:\Users\dwguo\AppData\Local\Temp\cceIZtOF.s 			page 49


1295:.\Generated_Source\PSoC5/UART.c ****     *
1296:.\Generated_Source\PSoC5/UART.c ****     *******************************************************************************/
1297:.\Generated_Source\PSoC5/UART.c ****     uint8 UART_GetTxBufferSize(void) 
1298:.\Generated_Source\PSoC5/UART.c ****                                                             
1299:.\Generated_Source\PSoC5/UART.c ****     {
 1439              		.loc 1 1299 0
 1440              		.cfi_startproc
 1441              		@ args = 0, pretend = 0, frame = 8
 1442              		@ frame_needed = 1, uses_anonymous_args = 0
 1443              		@ link register save eliminated.
 1444 0000 80B4     		push	{r7}
 1445              	.LCFI68:
 1446              		.cfi_def_cfa_offset 4
 1447 0002 83B0     		sub	sp, sp, #12
 1448              	.LCFI69:
 1449              		.cfi_def_cfa_offset 16
 1450 0004 00AF     		add	r7, sp, #0
 1451              		.cfi_offset 7, -4
 1452              	.LCFI70:
 1453              		.cfi_def_cfa_register 7
1300:.\Generated_Source\PSoC5/UART.c ****         uint8 size;
1301:.\Generated_Source\PSoC5/UART.c **** 
1302:.\Generated_Source\PSoC5/UART.c ****         #if(UART_TXBUFFERSIZE > UART_FIFO_LENGTH)
1303:.\Generated_Source\PSoC5/UART.c **** 
1304:.\Generated_Source\PSoC5/UART.c ****             /* Disable Tx interrupt. */
1305:.\Generated_Source\PSoC5/UART.c ****             /* Protect variables that could change on interrupt. */
1306:.\Generated_Source\PSoC5/UART.c ****             #if(UART_TX_INTERRUPT_ENABLED)
1307:.\Generated_Source\PSoC5/UART.c ****                 UART_DisableTxInt();
1308:.\Generated_Source\PSoC5/UART.c ****             #endif /* End UART_TX_INTERRUPT_ENABLED */
1309:.\Generated_Source\PSoC5/UART.c **** 
1310:.\Generated_Source\PSoC5/UART.c ****             if(UART_txBufferRead == UART_txBufferWrite)
1311:.\Generated_Source\PSoC5/UART.c ****             {
1312:.\Generated_Source\PSoC5/UART.c ****                 size = 0u;
1313:.\Generated_Source\PSoC5/UART.c ****             }
1314:.\Generated_Source\PSoC5/UART.c ****             else if(UART_txBufferRead < UART_txBufferWrite)
1315:.\Generated_Source\PSoC5/UART.c ****             {
1316:.\Generated_Source\PSoC5/UART.c ****                 size = (UART_txBufferWrite - UART_txBufferRead);
1317:.\Generated_Source\PSoC5/UART.c ****             }
1318:.\Generated_Source\PSoC5/UART.c ****             else
1319:.\Generated_Source\PSoC5/UART.c ****             {
1320:.\Generated_Source\PSoC5/UART.c ****                 size = (UART_TXBUFFERSIZE - UART_txBufferRead) + UART_txBufferWrite;
1321:.\Generated_Source\PSoC5/UART.c ****             }
1322:.\Generated_Source\PSoC5/UART.c **** 
1323:.\Generated_Source\PSoC5/UART.c ****             /* Enable Tx interrupt. */
1324:.\Generated_Source\PSoC5/UART.c ****             #if(UART_TX_INTERRUPT_ENABLED)
1325:.\Generated_Source\PSoC5/UART.c ****                 UART_EnableTxInt();
1326:.\Generated_Source\PSoC5/UART.c ****             #endif /* End UART_TX_INTERRUPT_ENABLED */
1327:.\Generated_Source\PSoC5/UART.c **** 
1328:.\Generated_Source\PSoC5/UART.c ****         #else /* UART_TXBUFFERSIZE > UART_FIFO_LENGTH */
1329:.\Generated_Source\PSoC5/UART.c **** 
1330:.\Generated_Source\PSoC5/UART.c ****             size = UART_TXSTATUS_REG;
 1454              		.loc 1 1330 0
 1455 0006 46F26243 		movw	r3, #:lower16:1073767522
 1456 000a C4F20003 		movt	r3, #:upper16:1073767522
 1457 000e 1B78     		ldrb	r3, [r3, #0]
 1458 0010 FB71     		strb	r3, [r7, #7]
1331:.\Generated_Source\PSoC5/UART.c **** 
ARM GAS  C:\Users\dwguo\AppData\Local\Temp\cceIZtOF.s 			page 50


1332:.\Generated_Source\PSoC5/UART.c ****             /* Is the fifo is full. */
1333:.\Generated_Source\PSoC5/UART.c ****             if(size & UART_TX_STS_FIFO_FULL)
 1459              		.loc 1 1333 0
 1460 0012 FB79     		ldrb	r3, [r7, #7]	@ zero_extendqisi2
 1461 0014 03F00403 		and	r3, r3, #4
 1462 0018 002B     		cmp	r3, #0
 1463 001a 03D0     		beq	.L80
1334:.\Generated_Source\PSoC5/UART.c ****             {
1335:.\Generated_Source\PSoC5/UART.c ****                 size = UART_FIFO_LENGTH;
 1464              		.loc 1 1335 0
 1465 001c 4FF00403 		mov	r3, #4
 1466 0020 FB71     		strb	r3, [r7, #7]
 1467 0022 0BE0     		b	.L81
 1468              	.L80:
1336:.\Generated_Source\PSoC5/UART.c ****             }
1337:.\Generated_Source\PSoC5/UART.c ****             else if(size & UART_TX_STS_FIFO_EMPTY)
 1469              		.loc 1 1337 0
 1470 0024 FB79     		ldrb	r3, [r7, #7]	@ zero_extendqisi2
 1471 0026 03F00203 		and	r3, r3, #2
 1472 002a 002B     		cmp	r3, #0
 1473 002c 03D0     		beq	.L82
1338:.\Generated_Source\PSoC5/UART.c ****             {
1339:.\Generated_Source\PSoC5/UART.c ****                 size = 0u;
 1474              		.loc 1 1339 0
 1475 002e 4FF00003 		mov	r3, #0
 1476 0032 FB71     		strb	r3, [r7, #7]
 1477 0034 02E0     		b	.L81
 1478              	.L82:
1340:.\Generated_Source\PSoC5/UART.c ****             }
1341:.\Generated_Source\PSoC5/UART.c ****             else
1342:.\Generated_Source\PSoC5/UART.c ****             {
1343:.\Generated_Source\PSoC5/UART.c ****                 /* We only know there is data in the fifo. */
1344:.\Generated_Source\PSoC5/UART.c ****                 size = 1u;
 1479              		.loc 1 1344 0
 1480 0036 4FF00103 		mov	r3, #1
 1481 003a FB71     		strb	r3, [r7, #7]
 1482              	.L81:
1345:.\Generated_Source\PSoC5/UART.c ****             }
1346:.\Generated_Source\PSoC5/UART.c **** 
1347:.\Generated_Source\PSoC5/UART.c ****         #endif /* End UART_TXBUFFERSIZE > UART_FIFO_LENGTH */
1348:.\Generated_Source\PSoC5/UART.c **** 
1349:.\Generated_Source\PSoC5/UART.c ****         return(size);
 1483              		.loc 1 1349 0
 1484 003c FB79     		ldrb	r3, [r7, #7]	@ zero_extendqisi2
1350:.\Generated_Source\PSoC5/UART.c ****     }
 1485              		.loc 1 1350 0
 1486 003e 1846     		mov	r0, r3
 1487 0040 07F10C07 		add	r7, r7, #12
 1488 0044 BD46     		mov	sp, r7
 1489 0046 80BC     		pop	{r7}
 1490 0048 7047     		bx	lr
 1491              		.cfi_endproc
 1492              	.LFE25:
 1493              		.size	UART_GetTxBufferSize, .-UART_GetTxBufferSize
 1494 004a 00BF     		.section	.text.UART_ClearTxBuffer,"ax",%progbits
 1495              		.align	2
 1496              		.global	UART_ClearTxBuffer
ARM GAS  C:\Users\dwguo\AppData\Local\Temp\cceIZtOF.s 			page 51


 1497              		.thumb
 1498              		.thumb_func
 1499              		.type	UART_ClearTxBuffer, %function
 1500              	UART_ClearTxBuffer:
 1501              	.LFB26:
1351:.\Generated_Source\PSoC5/UART.c **** 
1352:.\Generated_Source\PSoC5/UART.c **** 
1353:.\Generated_Source\PSoC5/UART.c ****     /*******************************************************************************
1354:.\Generated_Source\PSoC5/UART.c ****     * Function Name: UART_ClearTxBuffer
1355:.\Generated_Source\PSoC5/UART.c ****     ********************************************************************************
1356:.\Generated_Source\PSoC5/UART.c ****     *
1357:.\Generated_Source\PSoC5/UART.c ****     * Summary:
1358:.\Generated_Source\PSoC5/UART.c ****     *  Clears the TX RAM buffer by setting the read and write pointers both to zero.
1359:.\Generated_Source\PSoC5/UART.c ****     *  Clears the hardware TX FIFO.  Any data present in the FIFO will not be sent.
1360:.\Generated_Source\PSoC5/UART.c ****     *
1361:.\Generated_Source\PSoC5/UART.c ****     * Parameters:
1362:.\Generated_Source\PSoC5/UART.c ****     *  None.
1363:.\Generated_Source\PSoC5/UART.c ****     *
1364:.\Generated_Source\PSoC5/UART.c ****     * Return:
1365:.\Generated_Source\PSoC5/UART.c ****     *  None.
1366:.\Generated_Source\PSoC5/UART.c ****     *
1367:.\Generated_Source\PSoC5/UART.c ****     * Global Variables:
1368:.\Generated_Source\PSoC5/UART.c ****     *  UART_txBufferWrite - cleared to zero. 
1369:.\Generated_Source\PSoC5/UART.c ****     *  UART_txBufferRead - cleared to zero.
1370:.\Generated_Source\PSoC5/UART.c ****     *
1371:.\Generated_Source\PSoC5/UART.c ****     * Reentrant:
1372:.\Generated_Source\PSoC5/UART.c ****     *  No.
1373:.\Generated_Source\PSoC5/UART.c ****     *
1374:.\Generated_Source\PSoC5/UART.c ****     * Theory:
1375:.\Generated_Source\PSoC5/UART.c ****     *  Setting the pointers to zero makes the system believe there is no data to 
1376:.\Generated_Source\PSoC5/UART.c ****     *  read and writing will resume at address 0 overwriting any data that may have
1377:.\Generated_Source\PSoC5/UART.c ****     *  remained in the RAM.
1378:.\Generated_Source\PSoC5/UART.c ****     *
1379:.\Generated_Source\PSoC5/UART.c ****     * Side Effects:
1380:.\Generated_Source\PSoC5/UART.c ****     *  Any received data not read from the RAM buffer will be lost when overwritten.
1381:.\Generated_Source\PSoC5/UART.c ****     *
1382:.\Generated_Source\PSoC5/UART.c ****     *******************************************************************************/
1383:.\Generated_Source\PSoC5/UART.c ****     void UART_ClearTxBuffer(void) 
1384:.\Generated_Source\PSoC5/UART.c ****     {
 1502              		.loc 1 1384 0
 1503              		.cfi_startproc
 1504              		@ args = 0, pretend = 0, frame = 8
 1505              		@ frame_needed = 1, uses_anonymous_args = 0
 1506 0000 80B5     		push	{r7, lr}
 1507              	.LCFI71:
 1508              		.cfi_def_cfa_offset 8
 1509 0002 82B0     		sub	sp, sp, #8
 1510              	.LCFI72:
 1511              		.cfi_def_cfa_offset 16
 1512 0004 00AF     		add	r7, sp, #0
 1513              		.cfi_offset 14, -4
 1514              		.cfi_offset 7, -8
 1515              	.LCFI73:
 1516              		.cfi_def_cfa_register 7
1385:.\Generated_Source\PSoC5/UART.c ****         uint8 enableInterrupts;
1386:.\Generated_Source\PSoC5/UART.c ****         
1387:.\Generated_Source\PSoC5/UART.c ****         /* Enter critical section */
ARM GAS  C:\Users\dwguo\AppData\Local\Temp\cceIZtOF.s 			page 52


1388:.\Generated_Source\PSoC5/UART.c ****         enableInterrupts = CyEnterCriticalSection();        
 1517              		.loc 1 1388 0
 1518 0006 FFF7FEFF 		bl	CyEnterCriticalSection
 1519 000a 0346     		mov	r3, r0
 1520 000c FB71     		strb	r3, [r7, #7]
1389:.\Generated_Source\PSoC5/UART.c ****         /* clear the HW FIFO */
1390:.\Generated_Source\PSoC5/UART.c ****         UART_TXDATA_AUX_CTL_REG |=  UART_TX_FIFO_CLR;
 1521              		.loc 1 1390 0
 1522 000e 46F29243 		movw	r3, #:lower16:1073767570
 1523 0012 C4F20003 		movt	r3, #:upper16:1073767570
 1524 0016 46F29242 		movw	r2, #:lower16:1073767570
 1525 001a C4F20002 		movt	r2, #:upper16:1073767570
 1526 001e 1278     		ldrb	r2, [r2, #0]
 1527 0020 D2B2     		uxtb	r2, r2
 1528 0022 42F00102 		orr	r2, r2, #1
 1529 0026 D2B2     		uxtb	r2, r2
 1530 0028 1A70     		strb	r2, [r3, #0]
1391:.\Generated_Source\PSoC5/UART.c ****         UART_TXDATA_AUX_CTL_REG &= ~UART_TX_FIFO_CLR;
 1531              		.loc 1 1391 0
 1532 002a 46F29243 		movw	r3, #:lower16:1073767570
 1533 002e C4F20003 		movt	r3, #:upper16:1073767570
 1534 0032 46F29242 		movw	r2, #:lower16:1073767570
 1535 0036 C4F20002 		movt	r2, #:upper16:1073767570
 1536 003a 1278     		ldrb	r2, [r2, #0]
 1537 003c D2B2     		uxtb	r2, r2
 1538 003e 02F0FE02 		and	r2, r2, #254
 1539 0042 1A70     		strb	r2, [r3, #0]
1392:.\Generated_Source\PSoC5/UART.c ****         /* Exit critical section */
1393:.\Generated_Source\PSoC5/UART.c ****         CyExitCriticalSection(enableInterrupts);
 1540              		.loc 1 1393 0
 1541 0044 FB79     		ldrb	r3, [r7, #7]	@ zero_extendqisi2
 1542 0046 1846     		mov	r0, r3
 1543 0048 FFF7FEFF 		bl	CyExitCriticalSection
1394:.\Generated_Source\PSoC5/UART.c **** 
1395:.\Generated_Source\PSoC5/UART.c ****         #if(UART_TXBUFFERSIZE > UART_FIFO_LENGTH)
1396:.\Generated_Source\PSoC5/UART.c **** 
1397:.\Generated_Source\PSoC5/UART.c ****             /* Disable Tx interrupt. */
1398:.\Generated_Source\PSoC5/UART.c ****             /* Protect variables that could change on interrupt. */
1399:.\Generated_Source\PSoC5/UART.c ****             #if(UART_TX_INTERRUPT_ENABLED)
1400:.\Generated_Source\PSoC5/UART.c ****                 UART_DisableTxInt();
1401:.\Generated_Source\PSoC5/UART.c ****             #endif /* End UART_TX_INTERRUPT_ENABLED */
1402:.\Generated_Source\PSoC5/UART.c **** 
1403:.\Generated_Source\PSoC5/UART.c ****             UART_txBufferRead = 0u;
1404:.\Generated_Source\PSoC5/UART.c ****             UART_txBufferWrite = 0u;
1405:.\Generated_Source\PSoC5/UART.c **** 
1406:.\Generated_Source\PSoC5/UART.c ****             /* Enable Tx interrupt. */
1407:.\Generated_Source\PSoC5/UART.c ****             #if(UART_TX_INTERRUPT_ENABLED)
1408:.\Generated_Source\PSoC5/UART.c ****                 UART_EnableTxInt();
1409:.\Generated_Source\PSoC5/UART.c ****             #endif /* End UART_TX_INTERRUPT_ENABLED */
1410:.\Generated_Source\PSoC5/UART.c **** 
1411:.\Generated_Source\PSoC5/UART.c ****         #endif /* End UART_TXBUFFERSIZE > UART_FIFO_LENGTH */
1412:.\Generated_Source\PSoC5/UART.c ****     }
 1544              		.loc 1 1412 0
 1545 004c 07F10807 		add	r7, r7, #8
 1546 0050 BD46     		mov	sp, r7
 1547 0052 80BD     		pop	{r7, pc}
 1548              		.cfi_endproc
ARM GAS  C:\Users\dwguo\AppData\Local\Temp\cceIZtOF.s 			page 53


 1549              	.LFE26:
 1550              		.size	UART_ClearTxBuffer, .-UART_ClearTxBuffer
 1551              		.section	.text.UART_SendBreak,"ax",%progbits
 1552              		.align	2
 1553              		.global	UART_SendBreak
 1554              		.thumb
 1555              		.thumb_func
 1556              		.type	UART_SendBreak, %function
 1557              	UART_SendBreak:
 1558              	.LFB27:
1413:.\Generated_Source\PSoC5/UART.c **** 
1414:.\Generated_Source\PSoC5/UART.c **** 
1415:.\Generated_Source\PSoC5/UART.c ****     /*******************************************************************************
1416:.\Generated_Source\PSoC5/UART.c ****     * Function Name: UART_SendBreak
1417:.\Generated_Source\PSoC5/UART.c ****     ********************************************************************************
1418:.\Generated_Source\PSoC5/UART.c ****     *
1419:.\Generated_Source\PSoC5/UART.c ****     * Summary:
1420:.\Generated_Source\PSoC5/UART.c ****     *  Write a Break command to the UART
1421:.\Generated_Source\PSoC5/UART.c ****     *
1422:.\Generated_Source\PSoC5/UART.c ****     * Parameters:
1423:.\Generated_Source\PSoC5/UART.c ****     *  uint8 retMode:  Wait mode,
1424:.\Generated_Source\PSoC5/UART.c ****     *   0 - Initialize registers for Break, sends the Break signal and return 
1425:.\Generated_Source\PSoC5/UART.c ****     *       imediately.
1426:.\Generated_Source\PSoC5/UART.c ****     *   1 - Wait until Break sending is complete, reinitialize registers to normal
1427:.\Generated_Source\PSoC5/UART.c ****     *       transmission mode then return.
1428:.\Generated_Source\PSoC5/UART.c ****     *   2 - Reinitialize registers to normal transmission mode then return.
1429:.\Generated_Source\PSoC5/UART.c ****     *   3 - both steps: 0 and 1
1430:.\Generated_Source\PSoC5/UART.c ****     *       init registers for Break, send Break signal
1431:.\Generated_Source\PSoC5/UART.c ****     *       wait until Break sending is complete, reinit registers to normal
1432:.\Generated_Source\PSoC5/UART.c ****     *       transmission mode then return.
1433:.\Generated_Source\PSoC5/UART.c ****     *
1434:.\Generated_Source\PSoC5/UART.c ****     * Return:
1435:.\Generated_Source\PSoC5/UART.c ****     *  None.
1436:.\Generated_Source\PSoC5/UART.c ****     *
1437:.\Generated_Source\PSoC5/UART.c ****     * Global Variables:
1438:.\Generated_Source\PSoC5/UART.c ****     *  UART_initVar - checked to identify that the component has been  
1439:.\Generated_Source\PSoC5/UART.c ****     *     initialized.
1440:.\Generated_Source\PSoC5/UART.c ****     *  tx_period - static variable, used for keeping TX period configuration.
1441:.\Generated_Source\PSoC5/UART.c ****     *
1442:.\Generated_Source\PSoC5/UART.c ****     * Reentrant:
1443:.\Generated_Source\PSoC5/UART.c ****     *  No.
1444:.\Generated_Source\PSoC5/UART.c ****     *
1445:.\Generated_Source\PSoC5/UART.c ****     * Theory:
1446:.\Generated_Source\PSoC5/UART.c ****     *  SendBreak function initializes registers to send 13-bit break signal. It is
1447:.\Generated_Source\PSoC5/UART.c ****     *  important to return the registers configuration to normal for continue 8-bit
1448:.\Generated_Source\PSoC5/UART.c ****     *  operation.
1449:.\Generated_Source\PSoC5/UART.c ****     *  Trere are 3 variants for this API usage:
1450:.\Generated_Source\PSoC5/UART.c ****     *  1) SendBreak(3) - function will send the Break signal and take care on the
1451:.\Generated_Source\PSoC5/UART.c ****     *     configuration returning. Funcition will block CPU untill transmition 
1452:.\Generated_Source\PSoC5/UART.c ****     *     complete.
1453:.\Generated_Source\PSoC5/UART.c ****     *  2) User may want to use bloking time if UART configured to the low speed 
1454:.\Generated_Source\PSoC5/UART.c ****     *     operation
1455:.\Generated_Source\PSoC5/UART.c ****     *     Emample for this case:
1456:.\Generated_Source\PSoC5/UART.c ****     *     SendBreak(0);     - init Break signal transmition
1457:.\Generated_Source\PSoC5/UART.c ****     *         Add your code here to use CPU time
1458:.\Generated_Source\PSoC5/UART.c ****     *     SendBreak(1);     - complete Break operation
1459:.\Generated_Source\PSoC5/UART.c ****     *  3) Same to 2) but user may want to init and use the interrupt for complete 
ARM GAS  C:\Users\dwguo\AppData\Local\Temp\cceIZtOF.s 			page 54


1460:.\Generated_Source\PSoC5/UART.c ****     *     break operation.
1461:.\Generated_Source\PSoC5/UART.c ****     *     Example for this case:
1462:.\Generated_Source\PSoC5/UART.c ****     *     Init TX interrupt whith "TX - On TX Complete" parameter
1463:.\Generated_Source\PSoC5/UART.c ****     *     SendBreak(0);     - init Break signal transmition
1464:.\Generated_Source\PSoC5/UART.c ****     *         Add your code here to use CPU time
1465:.\Generated_Source\PSoC5/UART.c ****     *     When interrupt appear with UART_TX_STS_COMPLETE status:
1466:.\Generated_Source\PSoC5/UART.c ****     *     SendBreak(2);     - complete Break operation
1467:.\Generated_Source\PSoC5/UART.c ****     *
1468:.\Generated_Source\PSoC5/UART.c ****     * Side Effects:
1469:.\Generated_Source\PSoC5/UART.c ****     *   Uses static variable to keep registers configuration.
1470:.\Generated_Source\PSoC5/UART.c ****     *
1471:.\Generated_Source\PSoC5/UART.c ****     *******************************************************************************/
1472:.\Generated_Source\PSoC5/UART.c ****     void UART_SendBreak(uint8 retMode) 
1473:.\Generated_Source\PSoC5/UART.c ****     {
 1559              		.loc 1 1473 0
 1560              		.cfi_startproc
 1561              		@ args = 0, pretend = 0, frame = 16
 1562              		@ frame_needed = 1, uses_anonymous_args = 0
 1563              		@ link register save eliminated.
 1564 0000 80B4     		push	{r7}
 1565              	.LCFI74:
 1566              		.cfi_def_cfa_offset 4
 1567 0002 85B0     		sub	sp, sp, #20
 1568              	.LCFI75:
 1569              		.cfi_def_cfa_offset 24
 1570 0004 00AF     		add	r7, sp, #0
 1571              		.cfi_offset 7, -4
 1572              	.LCFI76:
 1573              		.cfi_def_cfa_register 7
 1574 0006 0346     		mov	r3, r0
 1575 0008 FB71     		strb	r3, [r7, #7]
1474:.\Generated_Source\PSoC5/UART.c **** 
1475:.\Generated_Source\PSoC5/UART.c ****         /* If not Initialized then skip this function*/
1476:.\Generated_Source\PSoC5/UART.c ****         if(UART_initVar != 0u)
 1576              		.loc 1 1476 0
 1577 000a 40F20003 		movw	r3, #:lower16:UART_initVar
 1578 000e C0F20003 		movt	r3, #:upper16:UART_initVar
 1579 0012 1B78     		ldrb	r3, [r3, #0]	@ zero_extendqisi2
 1580 0014 002B     		cmp	r3, #0
 1581 0016 4ED0     		beq	.L94
 1582              	.LBB2:
1477:.\Generated_Source\PSoC5/UART.c ****         {
1478:.\Generated_Source\PSoC5/UART.c ****             /*Set the Counter to 13-bits and transmit a 00 byte*/
1479:.\Generated_Source\PSoC5/UART.c ****             /*When that is done then reset the counter value back*/
1480:.\Generated_Source\PSoC5/UART.c ****             uint8 tmpStat;
1481:.\Generated_Source\PSoC5/UART.c **** 
1482:.\Generated_Source\PSoC5/UART.c ****             #if(UART_HD_ENABLED) /* Half Duplex mode*/
1483:.\Generated_Source\PSoC5/UART.c **** 
1484:.\Generated_Source\PSoC5/UART.c ****                 if( (retMode == UART_SEND_BREAK) ||
1485:.\Generated_Source\PSoC5/UART.c ****                     (retMode == UART_SEND_WAIT_REINIT ) )
1486:.\Generated_Source\PSoC5/UART.c ****                 {
1487:.\Generated_Source\PSoC5/UART.c ****                     /* CTRL_HD_SEND_BREAK - sends break bits in HD mode*/
1488:.\Generated_Source\PSoC5/UART.c ****                     UART_WriteControlRegister(UART_ReadControlRegister() |
1489:.\Generated_Source\PSoC5/UART.c ****                                                           UART_CTRL_HD_SEND_BREAK);
1490:.\Generated_Source\PSoC5/UART.c ****                     /* Send zeros*/
1491:.\Generated_Source\PSoC5/UART.c ****                     UART_TXDATA_REG = 0u;
1492:.\Generated_Source\PSoC5/UART.c **** 
ARM GAS  C:\Users\dwguo\AppData\Local\Temp\cceIZtOF.s 			page 55


1493:.\Generated_Source\PSoC5/UART.c ****                     do /*wait until transmit starts*/
1494:.\Generated_Source\PSoC5/UART.c ****                     {
1495:.\Generated_Source\PSoC5/UART.c ****                         tmpStat = UART_TXSTATUS_REG;
1496:.\Generated_Source\PSoC5/UART.c ****                     }while(tmpStat & UART_TX_STS_FIFO_EMPTY);
1497:.\Generated_Source\PSoC5/UART.c ****                 }
1498:.\Generated_Source\PSoC5/UART.c **** 
1499:.\Generated_Source\PSoC5/UART.c ****                 if( (retMode == UART_WAIT_FOR_COMPLETE_REINIT) ||
1500:.\Generated_Source\PSoC5/UART.c ****                     (retMode == UART_SEND_WAIT_REINIT) )
1501:.\Generated_Source\PSoC5/UART.c ****                 {
1502:.\Generated_Source\PSoC5/UART.c ****                     do /*wait until transmit complete*/
1503:.\Generated_Source\PSoC5/UART.c ****                     {
1504:.\Generated_Source\PSoC5/UART.c ****                         tmpStat = UART_TXSTATUS_REG;
1505:.\Generated_Source\PSoC5/UART.c ****                     }while(~tmpStat & UART_TX_STS_COMPLETE);
1506:.\Generated_Source\PSoC5/UART.c ****                 }
1507:.\Generated_Source\PSoC5/UART.c **** 
1508:.\Generated_Source\PSoC5/UART.c ****                 if( (retMode == UART_WAIT_FOR_COMPLETE_REINIT) ||
1509:.\Generated_Source\PSoC5/UART.c ****                     (retMode == UART_REINIT) ||
1510:.\Generated_Source\PSoC5/UART.c ****                     (retMode == UART_SEND_WAIT_REINIT) )
1511:.\Generated_Source\PSoC5/UART.c ****                 {
1512:.\Generated_Source\PSoC5/UART.c ****                     UART_WriteControlRegister(UART_ReadControlRegister() &
1513:.\Generated_Source\PSoC5/UART.c ****                                                          ~UART_CTRL_HD_SEND_BREAK);
1514:.\Generated_Source\PSoC5/UART.c ****                 }
1515:.\Generated_Source\PSoC5/UART.c **** 
1516:.\Generated_Source\PSoC5/UART.c ****             #else /* UART_HD_ENABLED Full Duplex mode */
1517:.\Generated_Source\PSoC5/UART.c **** 
1518:.\Generated_Source\PSoC5/UART.c ****                 static uint8 tx_period; 
1519:.\Generated_Source\PSoC5/UART.c ****                 
1520:.\Generated_Source\PSoC5/UART.c ****                 if( (retMode == UART_SEND_BREAK) ||
 1583              		.loc 1 1520 0
 1584 0018 FB79     		ldrb	r3, [r7, #7]	@ zero_extendqisi2
 1585 001a 002B     		cmp	r3, #0
 1586 001c 02D0     		beq	.L88
 1587 001e FB79     		ldrb	r3, [r7, #7]	@ zero_extendqisi2
 1588 0020 032B     		cmp	r3, #3
 1589 0022 23D1     		bne	.L89
 1590              	.L88:
1521:.\Generated_Source\PSoC5/UART.c ****                     (retMode == UART_SEND_WAIT_REINIT) )
1522:.\Generated_Source\PSoC5/UART.c ****                 {
1523:.\Generated_Source\PSoC5/UART.c ****                     /* CTRL_HD_SEND_BREAK - skip to send parity bit @ Break signal in Full Duplex m
1524:.\Generated_Source\PSoC5/UART.c ****                     if( (UART_PARITY_TYPE != UART__B_UART__NONE_REVB) ||
1525:.\Generated_Source\PSoC5/UART.c ****                          UART_PARITY_TYPE_SW )
1526:.\Generated_Source\PSoC5/UART.c ****                     {
1527:.\Generated_Source\PSoC5/UART.c ****                         UART_WriteControlRegister(UART_ReadControlRegister() |
1528:.\Generated_Source\PSoC5/UART.c ****                                                               UART_CTRL_HD_SEND_BREAK);
1529:.\Generated_Source\PSoC5/UART.c ****                     }                                                          
1530:.\Generated_Source\PSoC5/UART.c **** 
1531:.\Generated_Source\PSoC5/UART.c ****                     #if(UART_TXCLKGEN_DP)
1532:.\Generated_Source\PSoC5/UART.c ****                         tx_period = UART_TXBITCLKTX_COMPLETE_REG;
 1591              		.loc 1 1532 0
 1592 0024 46F23653 		movw	r3, #:lower16:1073767734
 1593 0028 C4F20003 		movt	r3, #:upper16:1073767734
 1594 002c 1B78     		ldrb	r3, [r3, #0]
 1595 002e DAB2     		uxtb	r2, r3
 1596 0030 40F20003 		movw	r3, #:lower16:tx_period.2322
 1597 0034 C0F20003 		movt	r3, #:upper16:tx_period.2322
 1598 0038 1A70     		strb	r2, [r3, #0]
1533:.\Generated_Source\PSoC5/UART.c ****                         UART_TXBITCLKTX_COMPLETE_REG = UART_TXBITCTR_BREAKBITS;
ARM GAS  C:\Users\dwguo\AppData\Local\Temp\cceIZtOF.s 			page 56


 1599              		.loc 1 1533 0
 1600 003a 46F23653 		movw	r3, #:lower16:1073767734
 1601 003e C4F20003 		movt	r3, #:upper16:1073767734
 1602 0042 4FF06702 		mov	r2, #103
 1603 0046 1A70     		strb	r2, [r3, #0]
1534:.\Generated_Source\PSoC5/UART.c ****                     #else
1535:.\Generated_Source\PSoC5/UART.c ****                         tx_period = UART_TXBITCTR_PERIOD_REG;
1536:.\Generated_Source\PSoC5/UART.c ****                         UART_TXBITCTR_PERIOD_REG = UART_TXBITCTR_BREAKBITS8X;
1537:.\Generated_Source\PSoC5/UART.c ****                     #endif /* End UART_TXCLKGEN_DP */
1538:.\Generated_Source\PSoC5/UART.c **** 
1539:.\Generated_Source\PSoC5/UART.c ****                     /* Send zeros*/
1540:.\Generated_Source\PSoC5/UART.c ****                     UART_TXDATA_REG = 0u;
 1604              		.loc 1 1540 0
 1605 0048 46F24243 		movw	r3, #:lower16:1073767490
 1606 004c C4F20003 		movt	r3, #:upper16:1073767490
 1607 0050 4FF00002 		mov	r2, #0
 1608 0054 1A70     		strb	r2, [r3, #0]
 1609              	.L90:
1541:.\Generated_Source\PSoC5/UART.c **** 
1542:.\Generated_Source\PSoC5/UART.c ****                     do /*wait until transmit starts*/
1543:.\Generated_Source\PSoC5/UART.c ****                     {
1544:.\Generated_Source\PSoC5/UART.c ****                         tmpStat = UART_TXSTATUS_REG;
 1610              		.loc 1 1544 0
 1611 0056 46F26243 		movw	r3, #:lower16:1073767522
 1612 005a C4F20003 		movt	r3, #:upper16:1073767522
 1613 005e 1B78     		ldrb	r3, [r3, #0]
 1614 0060 FB73     		strb	r3, [r7, #15]
1545:.\Generated_Source\PSoC5/UART.c ****                     }while(tmpStat & UART_TX_STS_FIFO_EMPTY);
 1615              		.loc 1 1545 0
 1616 0062 FB7B     		ldrb	r3, [r7, #15]	@ zero_extendqisi2
 1617 0064 03F00203 		and	r3, r3, #2
 1618 0068 002B     		cmp	r3, #0
 1619 006a F4D1     		bne	.L90
 1620              	.L89:
1546:.\Generated_Source\PSoC5/UART.c ****                 }
1547:.\Generated_Source\PSoC5/UART.c **** 
1548:.\Generated_Source\PSoC5/UART.c ****                 if( (retMode == UART_WAIT_FOR_COMPLETE_REINIT) ||
 1621              		.loc 1 1548 0
 1622 006c FB79     		ldrb	r3, [r7, #7]	@ zero_extendqisi2
 1623 006e 012B     		cmp	r3, #1
 1624 0070 02D0     		beq	.L91
 1625 0072 FB79     		ldrb	r3, [r7, #7]	@ zero_extendqisi2
 1626 0074 032B     		cmp	r3, #3
 1627 0076 0AD1     		bne	.L92
 1628              	.L91:
1549:.\Generated_Source\PSoC5/UART.c ****                     (retMode == UART_SEND_WAIT_REINIT) )
1550:.\Generated_Source\PSoC5/UART.c ****                 {
1551:.\Generated_Source\PSoC5/UART.c ****                     do /*wait until transmit complete*/
1552:.\Generated_Source\PSoC5/UART.c ****                     {
1553:.\Generated_Source\PSoC5/UART.c ****                         tmpStat = UART_TXSTATUS_REG;
 1629              		.loc 1 1553 0
 1630 0078 46F26243 		movw	r3, #:lower16:1073767522
 1631 007c C4F20003 		movt	r3, #:upper16:1073767522
 1632 0080 1B78     		ldrb	r3, [r3, #0]
 1633 0082 FB73     		strb	r3, [r7, #15]
1554:.\Generated_Source\PSoC5/UART.c ****                     }while(~tmpStat & UART_TX_STS_COMPLETE);
 1634              		.loc 1 1554 0
ARM GAS  C:\Users\dwguo\AppData\Local\Temp\cceIZtOF.s 			page 57


 1635 0084 FB7B     		ldrb	r3, [r7, #15]	@ zero_extendqisi2
 1636 0086 03F00103 		and	r3, r3, #1
 1637 008a 002B     		cmp	r3, #0
 1638 008c F4D0     		beq	.L91
 1639              	.L92:
1555:.\Generated_Source\PSoC5/UART.c ****                 }
1556:.\Generated_Source\PSoC5/UART.c **** 
1557:.\Generated_Source\PSoC5/UART.c ****                 if( (retMode == UART_WAIT_FOR_COMPLETE_REINIT) ||
 1640              		.loc 1 1557 0
 1641 008e FB79     		ldrb	r3, [r7, #7]	@ zero_extendqisi2
 1642 0090 012B     		cmp	r3, #1
 1643 0092 05D0     		beq	.L93
 1644 0094 FB79     		ldrb	r3, [r7, #7]	@ zero_extendqisi2
 1645 0096 022B     		cmp	r3, #2
 1646 0098 02D0     		beq	.L93
 1647 009a FB79     		ldrb	r3, [r7, #7]	@ zero_extendqisi2
 1648 009c 032B     		cmp	r3, #3
 1649 009e 0AD1     		bne	.L94
 1650              	.L93:
1558:.\Generated_Source\PSoC5/UART.c ****                     (retMode == UART_REINIT) ||
1559:.\Generated_Source\PSoC5/UART.c ****                     (retMode == UART_SEND_WAIT_REINIT) )
1560:.\Generated_Source\PSoC5/UART.c ****                 {
1561:.\Generated_Source\PSoC5/UART.c **** 
1562:.\Generated_Source\PSoC5/UART.c ****                     #if(UART_TXCLKGEN_DP)
1563:.\Generated_Source\PSoC5/UART.c ****                         UART_TXBITCLKTX_COMPLETE_REG = tx_period;
 1651              		.loc 1 1563 0
 1652 00a0 46F23653 		movw	r3, #:lower16:1073767734
 1653 00a4 C4F20003 		movt	r3, #:upper16:1073767734
 1654 00a8 40F20002 		movw	r2, #:lower16:tx_period.2322
 1655 00ac C0F20002 		movt	r2, #:upper16:tx_period.2322
 1656 00b0 1278     		ldrb	r2, [r2, #0]	@ zero_extendqisi2
 1657 00b2 1A70     		strb	r2, [r3, #0]
1564:.\Generated_Source\PSoC5/UART.c ****                     #else
1565:.\Generated_Source\PSoC5/UART.c ****                         UART_TXBITCTR_PERIOD_REG = tx_period;
1566:.\Generated_Source\PSoC5/UART.c ****                     #endif /* End UART_TXCLKGEN_DP */
1567:.\Generated_Source\PSoC5/UART.c **** 
1568:.\Generated_Source\PSoC5/UART.c ****                     if( (UART_PARITY_TYPE != UART__B_UART__NONE_REVB) || 
 1658              		.loc 1 1568 0
 1659 00b4 00BF     		nop
 1660              	.L94:
 1661              	.LBE2:
1569:.\Generated_Source\PSoC5/UART.c ****                          UART_PARITY_TYPE_SW )
1570:.\Generated_Source\PSoC5/UART.c ****                     {
1571:.\Generated_Source\PSoC5/UART.c ****                         UART_WriteControlRegister(UART_ReadControlRegister() &
1572:.\Generated_Source\PSoC5/UART.c ****                                                              ~UART_CTRL_HD_SEND_BREAK);
1573:.\Generated_Source\PSoC5/UART.c ****                     }                                     
1574:.\Generated_Source\PSoC5/UART.c ****                 }
1575:.\Generated_Source\PSoC5/UART.c ****             #endif    /* End UART_HD_ENABLED */
1576:.\Generated_Source\PSoC5/UART.c ****         }
1577:.\Generated_Source\PSoC5/UART.c ****     }
 1662              		.loc 1 1577 0
 1663 00b6 07F11407 		add	r7, r7, #20
 1664 00ba BD46     		mov	sp, r7
 1665 00bc 80BC     		pop	{r7}
 1666 00be 7047     		bx	lr
 1667              		.cfi_endproc
 1668              	.LFE27:
ARM GAS  C:\Users\dwguo\AppData\Local\Temp\cceIZtOF.s 			page 58


 1669              		.size	UART_SendBreak, .-UART_SendBreak
 1670              		.section	.text.UART_SetTxAddressMode,"ax",%progbits
 1671              		.align	2
 1672              		.global	UART_SetTxAddressMode
 1673              		.thumb
 1674              		.thumb_func
 1675              		.type	UART_SetTxAddressMode, %function
 1676              	UART_SetTxAddressMode:
 1677              	.LFB28:
1578:.\Generated_Source\PSoC5/UART.c **** 
1579:.\Generated_Source\PSoC5/UART.c **** 
1580:.\Generated_Source\PSoC5/UART.c ****     /*******************************************************************************
1581:.\Generated_Source\PSoC5/UART.c ****     * Function Name: UART_SetTxAddressMode
1582:.\Generated_Source\PSoC5/UART.c ****     ********************************************************************************
1583:.\Generated_Source\PSoC5/UART.c ****     *
1584:.\Generated_Source\PSoC5/UART.c ****     * Summary:
1585:.\Generated_Source\PSoC5/UART.c ****     *  Set the transmit addressing mode
1586:.\Generated_Source\PSoC5/UART.c ****     *
1587:.\Generated_Source\PSoC5/UART.c ****     * Parameters:
1588:.\Generated_Source\PSoC5/UART.c ****     *  addressMode: 0 -> Space
1589:.\Generated_Source\PSoC5/UART.c ****     *               1 -> Mark
1590:.\Generated_Source\PSoC5/UART.c ****     *
1591:.\Generated_Source\PSoC5/UART.c ****     * Return:
1592:.\Generated_Source\PSoC5/UART.c ****     *  None.
1593:.\Generated_Source\PSoC5/UART.c ****     *
1594:.\Generated_Source\PSoC5/UART.c ****     *******************************************************************************/
1595:.\Generated_Source\PSoC5/UART.c ****     void UART_SetTxAddressMode(uint8 addressMode) 
1596:.\Generated_Source\PSoC5/UART.c ****     {
 1678              		.loc 1 1596 0
 1679              		.cfi_startproc
 1680              		@ args = 0, pretend = 0, frame = 8
 1681              		@ frame_needed = 1, uses_anonymous_args = 0
 1682 0000 80B5     		push	{r7, lr}
 1683              	.LCFI77:
 1684              		.cfi_def_cfa_offset 8
 1685 0002 82B0     		sub	sp, sp, #8
 1686              	.LCFI78:
 1687              		.cfi_def_cfa_offset 16
 1688 0004 00AF     		add	r7, sp, #0
 1689              		.cfi_offset 14, -4
 1690              		.cfi_offset 7, -8
 1691              	.LCFI79:
 1692              		.cfi_def_cfa_register 7
 1693 0006 0346     		mov	r3, r0
 1694 0008 FB71     		strb	r3, [r7, #7]
1597:.\Generated_Source\PSoC5/UART.c ****         /* Mark/Space sending enable*/
1598:.\Generated_Source\PSoC5/UART.c ****         if(addressMode != 0)
 1695              		.loc 1 1598 0
 1696 000a FB79     		ldrb	r3, [r7, #7]	@ zero_extendqisi2
 1697 000c 002B     		cmp	r3, #0
 1698 000e 09D0     		beq	.L96
1599:.\Generated_Source\PSoC5/UART.c ****         {
1600:.\Generated_Source\PSoC5/UART.c ****             UART_WriteControlRegister(UART_ReadControlRegister() | UART_CTRL_MARK);
 1699              		.loc 1 1600 0
 1700 0010 FFF7FEFF 		bl	UART_ReadControlRegister
 1701 0014 0346     		mov	r3, r0
 1702 0016 43F00403 		orr	r3, r3, #4
ARM GAS  C:\Users\dwguo\AppData\Local\Temp\cceIZtOF.s 			page 59


 1703 001a DBB2     		uxtb	r3, r3
 1704 001c 1846     		mov	r0, r3
 1705 001e FFF7FEFF 		bl	UART_WriteControlRegister
 1706 0022 07E0     		b	.L98
 1707              	.L96:
1601:.\Generated_Source\PSoC5/UART.c ****         }
1602:.\Generated_Source\PSoC5/UART.c ****         else
1603:.\Generated_Source\PSoC5/UART.c ****         {
1604:.\Generated_Source\PSoC5/UART.c ****             UART_WriteControlRegister(UART_ReadControlRegister() & ~UART_CTRL_MARK);
 1708              		.loc 1 1604 0
 1709 0024 FFF7FEFF 		bl	UART_ReadControlRegister
 1710 0028 0346     		mov	r3, r0
 1711 002a 03F0FB03 		and	r3, r3, #251
 1712 002e 1846     		mov	r0, r3
 1713 0030 FFF7FEFF 		bl	UART_WriteControlRegister
 1714              	.L98:
1605:.\Generated_Source\PSoC5/UART.c ****         }
1606:.\Generated_Source\PSoC5/UART.c ****     }
 1715              		.loc 1 1606 0
 1716 0034 07F10807 		add	r7, r7, #8
 1717 0038 BD46     		mov	sp, r7
 1718 003a 80BD     		pop	{r7, pc}
 1719              		.cfi_endproc
 1720              	.LFE28:
 1721              		.size	UART_SetTxAddressMode, .-UART_SetTxAddressMode
 1722              		.bss
 1723              	tx_period.2322:
 1724 0005 00       		.space	1
 1725              		.text
 1726              	.Letext0: